
./kernel_driver.x:     file format elf64-x86-64
architecture: i386:x86-64, flags 0x00000112:
EXEC_P, HAS_SYMS, D_PAGED
start address 0x0000000000400c70

Contents of section .interp:
 400238 2f6c6962 36342f6c 642d6c69 6e75782d  /lib64/ld-linux-
 400248 7838362d 36342e73 6f2e3200           x86-64.so.2.    
Contents of section .note.ABI-tag:
 400254 04000000 10000000 01000000 474e5500  ............GNU.
 400264 00000000 03000000 02000000 00000000  ................
Contents of section .note.gnu.build-id:
 400274 04000000 14000000 03000000 474e5500  ............GNU.
 400284 bcb10176 83715267 7bc42366 66d6be44  ...v.qRg{.#ff..D
 400294 af9ddae5                             ....            
Contents of section .gnu.hash:
 400298 01000000 01000000 01000000 00000000  ................
 4002a8 00000000 00000000 00000000           ............    
Contents of section .dynsym:
 4002b8 00000000 00000000 00000000 00000000  ................
 4002c8 00000000 00000000 3e000000 12000000  ........>.......
 4002d8 00000000 00000000 00000000 00000000  ................
 4002e8 4f000000 20000000 00000000 00000000  O... ...........
 4002f8 00000000 00000000 25000000 12000000  ........%.......
 400308 00000000 00000000 00000000 00000000  ................
 400318 2c000000 12000000 00000000 00000000  ,...............
 400328 00000000 00000000 0b000000 12000000  ................
 400338 00000000 00000000 00000000 00000000  ................
 400348 6b000000 20000000 00000000 00000000  k... ...........
 400358 00000000 00000000 20000000 12000000  ........ .......
 400368 00000000 00000000 00000000 00000000  ................
 400378 11000000 12000000 00000000 00000000  ................
 400388 00000000 00000000 7a000000 20000000  ........z... ...
 400398 00000000 00000000 00000000 00000000  ................
 4003a8 0c000000 12000000 00000000 00000000  ................
 4003b8 00000000 00000000                    ........        
Contents of section .dynstr:
 4003c0 006c6962 632e736f 2e360073 72616e64  .libc.so.6.srand
 4003d0 00706f73 69785f6d 656d616c 69676e00  .posix_memalign.
 4003e0 74696d65 00707269 6e746600 5f5f6c69  time.printf.__li
 4003f0 62635f73 74617274 5f6d6169 6e006672  bc_start_main.fr
 400400 65650047 4c494243 5f322e32 2e35005f  ee.GLIBC_2.2.5._
 400410 49544d5f 64657265 67697374 6572544d  ITM_deregisterTM
 400420 436c6f6e 65546162 6c65005f 5f676d6f  CloneTable.__gmo
 400430 6e5f7374 6172745f 5f005f49 544d5f72  n_start__._ITM_r
 400440 65676973 74657254 4d436c6f 6e655461  egisterTMCloneTa
 400450 626c6500                             ble.            
Contents of section .gnu.version:
 400454 00000200 01000200 02000200 01000200  ................
 400464 02000100 0200                        ......          
Contents of section .gnu.version_r:
 400470 01000100 01000000 10000000 00000000  ................
 400480 751a6909 00000200 43000000 00000000  u.i.....C.......
Contents of section .rela.dyn:
 400490 e01f6000 00000000 06000000 02000000  ..`.............
 4004a0 00000000 00000000 e81f6000 00000000  ..........`.....
 4004b0 06000000 04000000 00000000 00000000  ................
 4004c0 f01f6000 00000000 06000000 06000000  ..`.............
 4004d0 00000000 00000000 f81f6000 00000000  ..........`.....
 4004e0 06000000 09000000 00000000 00000000  ................
Contents of section .rela.plt:
 4004f0 18206000 00000000 07000000 01000000  . `.............
 400500 00000000 00000000 20206000 00000000  ........  `.....
 400510 07000000 03000000 00000000 00000000  ................
 400520 28206000 00000000 07000000 05000000  ( `.............
 400530 00000000 00000000 30206000 00000000  ........0 `.....
 400540 07000000 07000000 00000000 00000000  ................
 400550 38206000 00000000 07000000 08000000  8 `.............
 400560 00000000 00000000 40206000 00000000  ........@ `.....
 400570 07000000 0a000000 00000000 00000000  ................
Contents of section .init:
 400580 f30f1efa 4883ec08 488b0561 1a200048  ....H...H..a. .H
 400590 85c07402 ffd04883 c408c3             ..t...H....     
Contents of section .plt:
 4005a0 ff35621a 2000ff25 641a2000 0f1f4000  .5b. ..%d. ...@.
 4005b0 ff25621a 20006800 000000e9 e0ffffff  .%b. .h.........
 4005c0 ff255a1a 20006801 000000e9 d0ffffff  .%Z. .h.........
 4005d0 ff25521a 20006802 000000e9 c0ffffff  .%R. .h.........
 4005e0 ff254a1a 20006803 000000e9 b0ffffff  .%J. .h.........
 4005f0 ff25421a 20006804 000000e9 a0ffffff  .%B. .h.........
 400600 ff253a1a 20006805 000000e9 90ffffff  .%:. .h.........
Contents of section .text:
 400610 4c8d5424 084883e4 e0ba0080 0000be20  L.T$.H......... 
 400620 00000041 ff72f855 4889e541 57415648  ...A.r.UH..AWAVH
 400630 8dbd78ff ffff4155 41544152 5331db48  ..x...AUATARS1.H
 400640 83c480e8 a8ffffff ba008000 00be2000  .............. .
 400650 0000488d 7d80e895 ffffffba 00800000  ..H.}...........
 400660 be200000 00488d7d 88e882ff ffffba00  . ...H.}........
 400670 800000be 20000000 488d7d90 e86fffff  .... ...H.}..o..
 400680 ffba0080 0000be20 00000048 8d7d98e8  ....... ...H.}..
 400690 5cffffff ba008000 00be2000 0000488d  \......... ...H.
 4006a0 7da0e849 ffffffba 00800000 be200000  }..I......... ..
 4006b0 00488d7d a8e836ff ffffba00 800000be  .H.}..6.........
 4006c0 20000000 488d7db0 e823ffff ffba0080   ...H.}..#......
 4006d0 0000be20 00000048 8d7db8e8 10ffffff  ... ...H.}......
 4006e0 ba008000 00be2000 0000488d 7dc8e8fd  ...... ...H.}...
 4006f0 feffffba 00800000 be200000 00488d7d  ......... ...H.}
 400700 c0e8eafe ffff31ff e8d3feff ff89c7e8  ......1.........
 400710 bcfeffff e8e7feff ffc5f857 c0c5fa2a  ...........W...*
 400720 c0c5fa59 05fb0e00 00488b85 78ffffff  ...Y.....H..x...
 400730 c5fa5905 f00e0000 c5fa5c05 ec0e0000  ..Y.......\.....
 400740 c5fa1104 18e8b6fe ffffc5f8 57c0c5fa  ............W...
 400750 2ac0c5fa 5905ca0e 0000488b 4580c5fa  *...Y.....H.E...
 400760 5905c20e 0000c5fa 5c05be0e 0000c5fa  Y.......\.......
 400770 11041848 83c30448 81fb0080 00007594  ...H...H......u.
 400780 31dbe879 feffffc5 f857c0c5 fa2ac0c5  1..y.....W...*..
 400790 fa59058d 0e000048 8b4588c5 fa590585  .Y.....H.E...Y..
 4007a0 0e0000c5 fa5c0581 0e0000c5 fa110418  .....\..........
 4007b0 e84bfeff ffc5f857 c0c5fa2a c0c5fa59  .K.....W...*...Y
 4007c0 055f0e00 00488b45 90c5fa59 05570e00  ._...H.E...Y.W..
 4007d0 00c5fa5c 05530e00 00c5fa11 04184883  ...\.S........H.
 4007e0 c3044881 fb008000 00759731 dbe80efe  ..H......u.1....
 4007f0 ffffc5f8 57c0c5fa 2ac0c5fa 5905220e  ....W...*...Y.".
 400800 0000488b 4598c5fa 59051a0e 0000c5fa  ..H.E...Y.......
 400810 5c05160e 0000c5fa 110418e8 e0fdffff  \...............
 400820 c5f857c0 c5fa2ac0 c5fa5905 f40d0000  ..W...*...Y.....
 400830 488b45a0 c5fa5905 ec0d0000 c5fa5c05  H.E...Y.......\.
 400840 e80d0000 c5fa1104 184883c3 044881fb  .........H...H..
 400850 00800000 759731db e8a3fdff ffc5f857  ....u.1........W
 400860 c0c5fa2a c0c5fa59 05b70d00 00488b45  ...*...Y.....H.E
 400870 a8c5fa59 05af0d00 00c5fa5c 05ab0d00  ...Y.......\....
 400880 00c5fa11 0418e875 fdffffc5 f857c048  .......u.....W.H
 400890 8b4db0c5 fa2ac0c5 fa590585 0d0000c5  .M...*...Y......
 4008a0 fa590581 0d0000c5 fa5c057d 0d0000c5  .Y.......\.}....
 4008b0 fa110419 4883c304 4881fb00 80000075  ....H...H......u
 4008c0 97488b55 c0488b75 b8488b7d c84c8d4a  .H.U.H.u.H.}.L.J
 4008d0 20488d46 204c39ce 4c8d5720 410f93c0   H.F L9.L.W A...
 4008e0 4839c241 0f93c345 09d84839 c70f93c0  H9.A...E..H9....
 4008f0 4c39d641 0f93c344 09d84184 c00f8438  L9.A...D..A....8
 400900 0300004c 39d2410f 93c04c39 cf0f93c0  ...L9.A...L9....
 400910 4108c00f 84220300 0031c0c5 f857c0c5  A...."...1...W..
 400920 fc110406 c5fc1104 02c5fc11 04074883  ..............H.
 400930 c020483d 00800000 75e5c5f8 77c78560  . H=....u...w..`
 400940 ffffffa0 86010045 31ff4531 ed4531f6  .......E1.E1.E1.
 400950 0f314883 ec084889 d34c8b4d a04c8b45  .1H...H..L.M.L.E
 400960 9856488b 558889c0 48c1e320 488b7580  .VH.U...H.. H.u.
 400970 488bbd78 ffffff51 4809c3ff 75a8488b  H..x...QH...u.H.
 400980 4d90e829 0700000f 3148c1e2 2089c048  M..)....1H.. ..H
 400990 09c24829 da4901d6 0f314889 d389c048  ..H).I...1H....H
 4009a0 83c42045 31e448c1 e3204809 c30f1f00  .. E1.H.. H.....
 4009b0 4c8b45c0 4883ec08 488b4d90 488b5588  L.E.H...H.M.H.U.
 4009c0 488b7580 4d01e048 8bbd78ff ffff4c8b  H.u.M..H..x...L.
 4009d0 4da04c01 e141504c 8b45b04c 01e24c01  M.L..APL.E.L..L.
 4009e0 e64c01e7 4d01e14d 01e04150 4c8b45a8  .L..M..M..APL.E.
 4009f0 4d01e041 504c8b45 984d01e0 4983ec80  M..APL.E.M..I...
 400a00 e86b0800 004883c4 204981fc 00800000  .k...H.. I......
 400a10 759e0f31 48c1e220 89c04809 c24829da  u..1H.. ..H..H).
 400a20 4901d50f 314883ec 08ff75c8 4889d34c  I...1H....u.H..L
 400a30 8b4da04c 8b4598ff 75b089c0 48c1e320  .M.L.E..u...H.. 
 400a40 488b4d90 ff75a848 09c3488b 5588488b  H.M..u.H..H.U.H.
 400a50 7580488b bd78ffff ffe80203 00000f31  u.H..x.........1
 400a60 48c1e220 89c04883 c4204809 c24829da  H.. ..H.. H..H).
 400a70 4901d7ff 8d60ffff ff740d48 8b75b848  I....`...t.H.u.H
 400a80 8b4db0e9 c8feffff 488b4db8 488b55c8  .M......H.M.H.U.
 400a90 31c0c5ed 76d2c5fc 282da20b 0000c5fd  1...v...(-......
 400aa0 2825ba0b 0000c5fd 6f1dd20b 0000c5fc  (%......o.......
 400ab0 103c01c5 c45c0402 4883c020 c5fc54c5  .<...\..H.. ..T.
 400ac0 c5fc5ac8 c4e37d19 c001c5f5 c2cc01c5  ..Z...}.........
 400ad0 fc5ac0c5 fdc2c401 c5e5dbc9 c5e5dbc0  .Z..............
 400ae0 c4e37546 f020c4e3 7546c031 c5fd70c0  ..uF. ..uF.1..p.
 400af0 d8c5fd70 ced8c5f5 6cc0c5ed dbd0483d  ...p....l.....H=
 400b00 00800000 75a84c89 fac4e37d 39d001bf  ....u.L....}9...
 400b10 d0154000 48bb4378 b471c45a 7c0a48c1  ..@.H.Cx.q.Z|.H.
 400b20 ea05c5f9 dbc24889 d0c5f173 d80848f7  ......H....s..H.
 400b30 e3c5f9db c131c0c5 d173d804 c5f82985  .....1...s....).
 400b40 50ffffff c5f829ad 60ffffff 4889d648  P.....).`...H..H
 400b50 c1ee07c5 f877e865 faffff4c 89f2bfe9  .....w.e...L....
 400b60 15400048 c1ea0548 89d048f7 e331c048  .@.H...H..H..1.H
 400b70 89d648c1 ee07e845 faffff4c 89eabf03  ..H....E...L....
 400b80 16400048 c1ea0548 89d048f7 e331c048  .@.H...H..H..1.H
 400b90 89d648c1 ee07e825 faffffc5 f96f8550  ..H....%.....o.P
 400ba0 ffffffbf 1e164000 31c0c5f9 db8560ff  ......@.1.....`.
 400bb0 ffffc5f9 7ec683e6 01e802fa ffff488b  ....~.........H.
 400bc0 bd78ffff ffe8e6f9 ffff488b 7d80e8dd  .x........H.}...
 400bd0 f9ffff48 8b7d88e8 d4f9ffff 488b7d90  ...H.}......H.}.
 400be0 e8cbf9ff ff488b7d 98e8c2f9 ffff488b  .....H.}......H.
 400bf0 7da0e8b9 f9ffff48 8b7da8e8 b0f9ffff  }......H.}......
 400c00 488b7db0 e8a7f9ff ff488b7d b8e89ef9  H.}......H.}....
 400c10 ffff488b 7dc0e895 f9ffff48 8b7dc8e8  ..H.}......H.}..
 400c20 8cf9ffff 488d65d0 31c05b41 5a415c41  ....H.e.1.[AZA\A
 400c30 5d415e41 5f5d498d 62f8c331 c0c70406  ]A^A_]I.b..1....
 400c40 00000000 c7040200 000000c7 04070000  ................
 400c50 00004883 c004483d 00800000 75dfe9da  ..H...H=....u...
 400c60 fcffff66 2e0f1f84 00000000 000f1f00  ...f............
 400c70 f30f1efa 31ed4989 d15e4889 e24883e4  ....1.I..^H..H..
 400c80 f0505449 c7c0a015 400048c7 c1301540  .PTI....@.H..0.@
 400c90 0048c7c7 10064000 ff154a13 2000f490  .H....@...J. ...
 400ca0 f30f1efa c3662e0f 1f840000 00000090  .....f..........
 400cb0 488d3d99 13200048 8d059213 20004839  H.=.. .H.... .H9
 400cc0 f8741548 8b051613 20004885 c07409ff  .t.H.... .H..t..
 400cd0 e00f1f80 00000000 c30f1f80 00000000  ................
 400ce0 488d3d69 13200048 8d356213 20004829  H.=i. .H.5b. .H)
 400cf0 fe48c1fe 034889f0 48c1e83f 4801c648  .H...H..H..?H..H
 400d00 d1fe7414 488b05ed 12200048 85c07408  ..t.H.... .H..t.
 400d10 ffe0660f 1f440000 c30f1f80 00000000  ..f..D..........
 400d20 f30f1efa 803d2113 20000075 13554889  .....=!. ..u.UH.
 400d30 e5e87aff ffffc605 0f132000 015dc390  ..z....... ..]..
 400d40 c366662e 0f1f8400 00000000 0f1f4000  .ff...........@.
 400d50 f30f1efa eb8a662e 0f1f8400 00000000  ......f.........
 400d60 5531c048 89e5534c 8b5d1848 8b5d104c  U1.H..SL.].H.].L
 400d70 8b55200f 1f440000 c5fc1034 07c5fc10  .U ..D.....4....
 400d80 3c06c5cc 5c2c03c4 c1445c1c 03c5fc10  <...\,...D\.....
 400d90 2402c5fc 103401c5 dc5c3c03 c4c14c5c  $....4...\<...L\
 400da0 3403c4c1 7c101400 c5ec5c24 03c4c17c  4...|.....\$...|
 400db0 101401c4 c16c5c04 03c5c459 cfc54c59  .....l\....Y..LY
 400dc0 c6c5dc59 d4c53c58 c1c5fc59 c8c5f458  ...Y..<X...Y...X
 400dd0 cac5bc59 d4c53c59 c0c5dc59 e6c57459  ...Y..<Y...Y..tY
 400de0 cfc5f459 cec5fc59 c7c4c16c 5cd1c4c1  ...Y...Y...l\...
 400df0 745cc8c5 fc5cc4c5 ec59d3c5 f459cdc5  t\...\...Y...Y..
 400e00 e459dbc5 d459edc5 ec58c9c5 e458ddc5  .Y...Y...X...X..
 400e10 fc59c3c5 f458c0c4 c17c1104 024883c0  .Y...X...|...H..
 400e20 20483d00 8000000f 854bffff ffc5f877   H=......K.....w
 400e30 5b5dc366 662e0f1f 84000000 00006690  [].ff.........f.
 400e40 55498d41 204889e5 41564c8b 55204c8b  UI.A H..AVL.U L.
 400e50 5d104155 41544939 c24d8d62 2053488b  ].AUATI9.M.b SH.
 400e60 5d18410f 93c64d39 e10f93c0 4109c649  ].A...M9....A..I
 400e70 8d402049 39c2410f 93c54d39 e00f93c0  .@ I9.A...M9....
 400e80 4409e84c 8d692044 21f04d39 ea410f93  D..L.i D!.M9.A..
 400e90 c54c39e1 410f93c6 4509f544 21e84c8d  .L9.A...E..D!.L.
 400ea0 6a204d39 ea410f93 c54c39e2 410f93c6  j M9.A...L9.A...
 400eb0 4509f544 21e84c8d 6b204d39 ea410f93  E..D!.L.k M9.A..
 400ec0 c54c39e3 410f93c6 4509f544 21e84c8d  .L9.A...E..D!.L.
 400ed0 6e204d39 ea410f93 c54c39e6 410f93c6  n M9.A...L9.A...
 400ee0 4509f544 21e84d8d 6b204d39 ea410f93  E..D!.M.k M9.A..
 400ef0 c54d39e3 410f93c6 4509f544 84e80f84  .M9.A...E..D....
 400f00 df000000 488d4720 4939c241 0f93c54c  ....H.G I9.A...L
 400f10 39e70f93 c04108c5 0f84c500 000031c0  9....A........1.
 400f20 c5fc1034 07c5fc10 2c02c4c1 4c5c0403  ...4....,...L\..
 400f30 c4c1545c 1c03c5fc 103406c5 cc5c3c03  ..T\.....4...\<.
 400f40 c5fc1034 01c5cc5c 2403c5e4 59cbc4c1  ...4...\$...Y...
 400f50 7c102c00 c4c17c10 3401c4c1 545c2c03  |.,...|.4...T\,.
 400f60 c5cc5c34 03c5dc59 d4c55459 c5c5f458  ..\4...Y..TY...X
 400f70 cac5cc59 d6c54c59 c9c5d459 c9c53c58  ...Y..LY...Y..<X
 400f80 c2c4c15c 59d0c441 6459c0c5 dc59e5c5  ...\Y..AdY...Y..
 400f90 e459dec4 c16c5cd1 c4c1745c c8c5ec59  .Y...l\...t\...Y
 400fa0 d0c5e45c dcc5f459 cfc5fc59 c0c5c459  ...\...Y...Y...Y
 400fb0 ffc5ec58 c9c5fc58 c7c5fc59 c3c5f458  ...X...X...Y...X
 400fc0 c8c4c17c 110c0248 83c02048 3d008000  ...|...H.. H=...
 400fd0 000f8549 ffffffc5 f8775b41 5c415d41  ...I.....w[A\A]A
 400fe0 5e5dc331 c00f1f00 c4c17a10 1403c5fa  ^].1......z.....
 400ff0 100c03c5 fa101c02 c5fa102c 01c5fa10  ...........,....
 401000 0406c4c1 7a102400 c5e25cf2 c5d25ce9  ....z.$...\...\.
 401010 c4c17a10 1c01c5fa 103c07c5 fa5cc1c5  ..z......<...\..
 401020 da5ce2c5 e25cd9c5 c25cfac5 ca59cec5  .\...\...\...Y..
 401030 5259c5c5 da59d4c5 3a58c1c5 e259cbc5  RY...Y..:X...Y..
 401040 f258cac5 ba59d4c5 3a59c3c5 da59e5c5  .X...Y..:Y...Y..
 401050 4a59c9c5 d259c9c5 e259dec4 c16a5cd1  JY...Y...Y...j\.
 401060 c4c1725c c8c5e25c dcc5ea59 d0c5f259  ..r\...\...Y...Y
 401070 cfc5fa59 c0c5c259 ffc5ea58 c9c5fa58  ...Y...Y...X...X
 401080 c7c5fa59 c3c5f258 c8c4c17a 110c0248  ...Y...X...z...H
 401090 83c00448 3d008000 000f8549 ffffff5b  ...H=......I...[
 4010a0 415c415d 415e5dc3 0f1f8400 00000000  A\A]A^].........
 4010b0 5531c048 89e55348 83e4e048 8b5d104c  U1.H..SH...H.].L
 4010c0 8b5d184c 8b552066 0f1f8400 00000000  .].L.U f........
 4010d0 c5fc283c 07c5fc28 4c0720c5 c45c2403  ..(<...(L. ..\$.
 4010e0 c5f45c5c 0320c5fc 283c06c5 fc284c06  ..\\. ..(<...(L.
 4010f0 20c44144 5c0403c5 fc287402 20c4c174   .AD\....(t. ..t
 401100 5c7c0320 c5fc282c 01c5fc28 0c02c5f4  \|. ..(,...(....
 401110 5c1403c5 cc5c4c03 20c4c154 5c3403c4  \....\L. ..T\4..
 401120 c17c2804 00c57c5c 1c03c56c 59eac4c1  .|(...|\...lY...
 401130 7c284400 20c57c5c 4c0320c4 c17c2804  |(D. .|\L. ..|(.
 401140 01c4417c 5c2403c5 7459f1c4 c17c2844  ..A|\$..tY...|(D
 401150 0120c441 7c5c5403 20c5cc59 c6c5fc28  . .A|\T. ..Y...(
 401160 6c0120c4 c1545c6c 0320c594 58c0c554  l. ..T\l. ..X..T
 401170 59edc5fc 294424e0 c4410c58 fdc44124  Y...)D$..A.X..A$
 401180 59f3c441 1c59ecc5 7c297c24 c0c44134  Y..A.Y..|)|$..A4
 401190 59f9c441 0c58edc4 412c59f2 c4c14c59  Y..A.X..A,Y...LY
 4011a0 c5c4416c 59edc441 0458fec5 1c597424  ..AlY..A.X...Yt$
 4011b0 e0c4c16c 59d4c4c1 4c59f3c4 417c5cf6  ...lY...LY..A|\.
 4011c0 c5a45944 24e0c5ec 5cf6c50c 59f4c5dc  ..YD$...\...Y...
 4011d0 59e4c4c1 7c5cc5c4 c17c59c0 c4413c59  Y...|\...|Y..A<Y
 4011e0 c0c50c58 f0c4c154 59c7c4c1 5c58e0c4  ...X...TY...\X..
 4011f0 c15459e9 c5cc59f4 c5fc2864 24c0c5ac  .TY...Y...(d$...
 401200 59d4c50c 58f6c5fc 5cc2c5b4 59d4c4c1  Y...X...\...Y...
 401210 7459e7c4 417c2934 02c4c174 59cac5fc  tY..A|)4...tY...
 401220 59c3c5e4 59dbc5ec 5cd4c5f4 5cedc5ec  Y...Y...\...\...
 401230 59d7c5c4 59ffc5fc 58c2c5e4 58dfc5d4  Y...Y...X...X...
 401240 59ebc5fc 58edc4c1 7c296c02 204883c0  Y...X...|)l. H..
 401250 40483d00 8000000f 8573feff ffc5f877  @H=......s.....w
 401260 488b5df8 c9c3662e 0f1f8400 00000000  H.]...f.........
 401270 c5fc2837 c5fc282a 55c5fc28 1ec5fc28  ..(7..(*U..(...(
 401280 6220c441 7c287920 4889e54c 8b5d104c  b .A|(y H..L.].L
 401290 8b551848 8b4520c4 c1545c3b c4c14c5c  .U.H.E ..T\;..L\
 4012a0 0bc5fc28 31c4414c 5c02c441 645c1ac4  ...(1.AL\..Ad\..
 4012b0 c17c2829 c5c459d7 c441545c 22c4c17c  .|()..Y..AT\"..|
 4012c0 2818c4c1 3c59c0c4 41645c0b c5fc2877  (...<Y..Ad\...(w
 4012d0 20c5fc28 5e20c5fc 286920c4 41045c52   ..(^ ..(i .A.\R
 4012e0 20c44134 59e9c5ec 58d0c4c1 1c59c4c5   .A4Y...X....Y..
 4012f0 1c59e2c5 b459d2c5 1458e8c4 c14c5c43  .Y...Y...X...L\C
 401300 20c4c164 5c7220c4 c15c5c5b 20c4c154   ..d\r ..\\[ ..T
 401310 5c6220c4 c17c2868 20c4413c 59f5c4c1  \b ..|(h .A<Y...
 401320 545c6b20 c4414459 edc4413c 59c1c4c1  T\k .ADY..A<Y...
 401330 4459f9c4 410c5ce4 c4c16c5c d5c55459  DY..A.\...l\..TY
 401340 edc51c59 e1c4c144 5cf8c4c1 6c59d3c5  ...Y...D\...lY..
 401350 f459c9c4 412459db c59c58d2 c4c17458  .Y..A$Y...X...tX
 401360 cbc5f459 cfc5ec58 d1c5dc59 ccc5fc29  ...Y...X...Y...)
 401370 10c5e459 d3c5fc28 7f40c5ec 58d1c4c1  ...Y...(.@..X...
 401380 2c59cac5 2c59d2c5 d459d2c5 1458e9c4  ,Y..,Y...Y...X..
 401390 c1445c4b 40c5fc28 7e40c4c1 445c7a40  .D\K@..(~@..D\z@
 4013a0 c57c287a 40c44104 5c4340c5 7c287940  .|(z@.A.\C@.|(y@
 4013b0 c4415c59 f5c44104 5c4a40c4 417c2878  .A\Y..A.\J@.A|(x
 4013c0 40c44164 59edc441 045c5b40 c4417c28  @.AdY..A.\[@.A|(
 4013d0 7940c5e4 59ddc441 045c6240 c5dc59e5  y@..Y..A.\b@..Y.
 4013e0 c4410c5c d2c4c16c 5cd5c441 2459ebc5  .A.\...l\..A$Y..
 4013f0 2c59d0c5 e45ce4c5 ec59d6c5 fc59c0c5  ,Y...\...Y...Y..
 401400 cc59f6c5 ac58d2c5 fc58c6c5 fc59c4c5  .Y...X...X...Y..
 401410 ec58c0c4 c13c59d0 c5fc2940 20c4c134  .X...<Y...)@ ..4
 401420 59c1c4c1 7c286b60 c4417c28 7060c5fc  Y...|(k`.A|(p`..
 401430 285a60c4 417c2852 60c5fc28 7660c5fc  (Z`.A|(R`..(v`..
 401440 286160c5 e45cddc4 c15c5ce2 c4c14c5c  (a`..\...\\...L\
 401450 f2c5ec58 d0c4c11c 59c4c51c 59e2c5a4  ...X....Y...Y...
 401460 59d2c514 58e8c5fc 284760c5 fc5cc5c5  Y...X...(G`..\..
 401470 8c5cedc4 417c2871 60c4410c 5cd2c441  .\..A|(q`.A.\..A
 401480 3459f5c4 413c59ed c4413459 cbc4410c  4Y..A<Y..A4Y..A.
 401490 5ce4c4c1 6c5cd5c5 1c59e1c5 ec59d7c5  \...l\...Y...Y..
 4014a0 f459c9c5 c459ffc5 9c58d2c5 f458cfc4  .Y...Y...X...X..
 4014b0 c13c59fb c4c1445c f9c5f459 ffc5e459  .<Y...D\...Y...Y
 4014c0 cbc5ec58 ffc5dc59 d4c5fc29 7840c5d4  ...X...Y...)x@..
 4014d0 59fdc5f4 58cac4c1 2c59d2c5 2c59d1c5  Y...X...,Y..,Y..
 4014e0 d459c9c5 c458fac5 dc59d7c5 e459ffc5  .Y...X...Y...Y..
 4014f0 dc59e5c5 e459ddc4 c16c5cd2 c5f45ccf  .Y...Y...l\...\.
 401500 c5ec59d0 c5e45ce4 c5f459ce c5fc59c0  ..Y...\...Y...Y.
 401510 c5cc59f6 c5ec58c9 c5fc58c6 c5fc59c4  ..Y...X...X...Y.
 401520 c5f458c8 c5fc2948 60c5f877 5dc36690  ..X...)H`..w].f.
 401530 f30f1efa 41574989 d7415649 89f64155  ....AWI..AVI..AU
 401540 4189fd41 544c8d25 b4082000 55488d2d  A..ATL.%.. .UH.-
 401550 b4082000 534c29e5 4883ec08 e81ff0ff  .. .SL).H.......
 401560 ff48c1fd 03741f31 db0f1f80 00000000  .H...t.1........
 401570 4c89fa4c 89f64489 ef41ff14 dc4883c3  L..L..D..A...H..
 401580 014839dd 75ea4883 c4085b5d 415c415d  .H9.u.H...[]A\A]
 401590 415e415f c366662e 0f1f8400 00000000  A^A_.ff.........
 4015a0 f30f1efa c3                          .....           
Contents of section .fini:
 4015a8 f30f1efa 4883ec08 4883c408 c3        ....H...H....   
Contents of section .rodata:
 4015c0 01000200 00000000 00000000 00000000  ................
 4015d0 63686563 6b206379 636c6573 2f52554e  check cycles/RUN
 4015e0 533a2025 6c6c750a 006b6572 6e656c20  S: %llu..kernel 
 4015f0 6379636c 65732f52 554e533a 20256c6c  cycles/RUNS: %ll
 401600 750a006b 65726e65 6c322063 79636c65  u..kernel2 cycle
 401610 732f5255 4e533a20 256c6c75 0a002564  s/RUNS: %llu..%d
 401620 200a0000 00000030 00008042 00000042   ......0...B...B
 401630 00000000 00000000 00000000 00000000  ................
 401640 ffffff7f ffffff7f ffffff7f ffffff7f  ................
 401650 ffffff7f ffffff7f ffffff7f ffffff7f  ................
 401660 82764968 c2253c3d 82764968 c2253c3d  .vIh.%<=.vIh.%<=
 401670 82764968 c2253c3d 82764968 c2253c3d  .vIh.%<=.vIh.%<=
 401680 01000000 00000000 01000000 00000000  ................
 401690 01000000 00000000 01000000 00000000  ................
Contents of section .eh_frame_hdr:
 4016a0 011b033b 5c000000 0a000000 00efffff  ...;\...........
 4016b0 a0000000 70efffff 20010000 d0f5ffff  ....p... .......
 4016c0 78000000 00f6ffff 8c000000 c0f6ffff  x...............
 4016d0 c8000000 a0f7ffff ec000000 10faffff  ................
 4016e0 68010000 d0fbffff 90010000 90feffff  h...............
 4016f0 b0010000 00ffffff f8010000           ............    
Contents of section .eh_frame:
 401700 14000000 00000000 017a5200 01781001  .........zR..x..
 401710 1b0c0708 90010000 10000000 1c000000  ................
 401720 50f5ffff 2f000000 00440710 10000000  P.../....D......
 401730 30000000 6cf5ffff 05000000 00000000  0...l...........
 401740 24000000 44000000 58eeffff 70000000  $...D...X...p...
 401750 000e1046 0e184a0f 0b770880 003f1a3b  ...F..J..w...?.;
 401760 2a332422 00000000 20000000 6c000000  *3$".... ...l...
 401770 f0f5ffff d3000000 00410e10 8602450d  .........A....E.
 401780 06418303 02cb0c07 08000000 30000000  .A..........0...
 401790 90000000 acf6ffff 68020000 00410e10  ........h....A..
 4017a0 8602470d 06518e03 8d048c05 45830603  ..G..Q......E...
 4017b0 84010a0c 0708410b 02c40c07 08000000  ......A.........
 4017c0 44000000 c4000000 48eeffff 53060000  D.......H...S...
 4017d0 00450c0a 00561006 02760051 0f037658  .E...V...v.Q..vX
 4017e0 06100f02 7678100e 02767010 0d027668  ....vx...vp...vh
 4017f0 100c0276 60411003 02765003 f0050a0c  ...v`A...vP.....
 401800 0a004d0c 0708410b 24000000 0c010000  ..M...A.$.......
 401810 a0f8ffff b6010000 00410e10 8602450d  .........A....E.
 401820 06458303 03aa010c 07080000 00000000  .E..............
 401830 1c000000 34010000 38faffff be020000  ....4...8.......
 401840 00490e10 8602520d 0603a202 0c070800  .I....R.........
 401850 44000000 54010000 d8fcffff 65000000  D...T.......e...
 401860 00460e10 8f02450e 188e0345 0e208d04  .F....E....E. ..
 401870 450e288c 05480e30 8606480e 38830747  E.(..H.0..H.8..G
 401880 0e406e0e 38410e30 410e2842 0e20420e  .@n.8A.0A.(B. B.
 401890 18420e10 420e0800 10000000 9c010000  .B..B...........
 4018a0 00fdffff 05000000 00000000 00000000  ................
Contents of section .init_array:
 601e00 500d4000 00000000                    P.@.....        
Contents of section .fini_array:
 601e08 200d4000 00000000                     .@.....        
Contents of section .dynamic:
 601e10 01000000 00000000 01000000 00000000  ................
 601e20 0c000000 00000000 80054000 00000000  ..........@.....
 601e30 0d000000 00000000 a8154000 00000000  ..........@.....
 601e40 19000000 00000000 001e6000 00000000  ..........`.....
 601e50 1b000000 00000000 08000000 00000000  ................
 601e60 1a000000 00000000 081e6000 00000000  ..........`.....
 601e70 1c000000 00000000 08000000 00000000  ................
 601e80 f5feff6f 00000000 98024000 00000000  ...o......@.....
 601e90 05000000 00000000 c0034000 00000000  ..........@.....
 601ea0 06000000 00000000 b8024000 00000000  ..........@.....
 601eb0 0a000000 00000000 94000000 00000000  ................
 601ec0 0b000000 00000000 18000000 00000000  ................
 601ed0 15000000 00000000 00000000 00000000  ................
 601ee0 03000000 00000000 00206000 00000000  ......... `.....
 601ef0 02000000 00000000 90000000 00000000  ................
 601f00 14000000 00000000 07000000 00000000  ................
 601f10 17000000 00000000 f0044000 00000000  ..........@.....
 601f20 07000000 00000000 90044000 00000000  ..........@.....
 601f30 08000000 00000000 60000000 00000000  ........`.......
 601f40 09000000 00000000 18000000 00000000  ................
 601f50 feffff6f 00000000 70044000 00000000  ...o....p.@.....
 601f60 ffffff6f 00000000 01000000 00000000  ...o............
 601f70 f0ffff6f 00000000 54044000 00000000  ...o....T.@.....
 601f80 00000000 00000000 00000000 00000000  ................
 601f90 00000000 00000000 00000000 00000000  ................
 601fa0 00000000 00000000 00000000 00000000  ................
 601fb0 00000000 00000000 00000000 00000000  ................
 601fc0 00000000 00000000 00000000 00000000  ................
 601fd0 00000000 00000000 00000000 00000000  ................
Contents of section .got:
 601fe0 00000000 00000000 00000000 00000000  ................
 601ff0 00000000 00000000 00000000 00000000  ................
Contents of section .got.plt:
 602000 101e6000 00000000 00000000 00000000  ..`.............
 602010 00000000 00000000 b6054000 00000000  ..........@.....
 602020 c6054000 00000000 d6054000 00000000  ..@.......@.....
 602030 e6054000 00000000 f6054000 00000000  ..@.......@.....
 602040 06064000 00000000                    ..@.....        
Contents of section .data:
 602048 00000000                             ....            
Contents of section .comment:
 0000 4743433a 2028474e 55292038 2e352e30  GCC: (GNU) 8.5.0
 0010 20323032 31303531 34202852 65642048   20210514 (Red H
 0020 61742038 2e352e30 2d323229 00        at 8.5.0-22).   
Contents of section .gnu.build.attributes:
 a02050 0b000000 10000000 00010000 47412401  ............GA$.
 a02060 33703131 31330000 9f0c4000 00000000  3p1113....@.....
 a02070 9f0c4000 00000000 1f000000 00000000  ..@.............
 a02080 00010000 47412405 72756e6e 696e6720  ....GA$.running 
 a02090 67636320 382e352e 30203230 32313035  gcc 8.5.0 202105
 a020a0 31340000 1f000000 00000000 00010000  14..............
 a020b0 47412405 616e6e6f 62696e20 67636320  GA$.annobin gcc 
 a020c0 382e352e 30203230 32313035 31340000  8.5.0 20210514..
 a020d0 1d000000 00000000 00010000 47412405  ............GA$.
 a020e0 706c7567 696e206e 616d653a 20676363  plugin name: gcc
 a020f0 2d616e6e 6f62696e 00000000 0b000000  -annobin........
 a02100 00000000 00010000 47412a47 4f57002a  ........GA*GOW.*
 a02110 05020000 06000000 00000000 00010000  ................
 a02120 47412a02 00000000 0f000000 00000000  GA*.............
 a02130 00010000 47412b73 7461636b 5f636c61  ....GA+stack_cla
 a02140 73680000 13000000 00000000 00010000  sh..............
 a02150 47412a63 665f7072 6f746563 74696f6e  GA*cf_protection
 a02160 00080000 0d000000 00000000 00010000  ................
 a02170 47412a46 4f525449 465900ff 00000000  GA*FORTIFY......
 a02180 16000000 00000000 00010000 47412b47  ............GA+G
 a02190 4c494243 58585f41 53534552 54494f4e  LIBCXX_ASSERTION
 a021a0 53000000 06000000 00000000 00010000  S...............
 a021b0 47412a07 03000000 05000000 00000000  GA*.............
 a021c0 00010000 47412108 00000000 16000000  ....GA!.........
 a021d0 00000000 00010000 47412b6f 6d69745f  ........GA+omit_
 a021e0 6672616d 655f706f 696e7465 72000000  frame_pointer...
 a021f0 06000000 00000000 00010000 47412a06  ............GA*.
 a02200 12000000 11000000 00000000 00010000  ................
 a02210 47412173 7461636b 5f726561 6c69676e  GA!stack_realign
 a02220 00000000 0b000000 10000000 00010000  ................
 a02230 47412401 33703131 31330000 630c4000  GA$.3p1113..c.@.
 a02240 00000000 630c4000 00000000 1f000000  ....c.@.........
 a02250 00000000 00010000 47412405 72756e6e  ........GA$.runn
 a02260 696e6720 67636320 382e352e 30203230  ing gcc 8.5.0 20
 a02270 32313035 31340000 1f000000 00000000  210514..........
 a02280 00010000 47412405 616e6e6f 62696e20  ....GA$.annobin 
 a02290 67636320 382e352e 30203230 32313035  gcc 8.5.0 202105
 a022a0 31340000 1d000000 00000000 00010000  14..............
 a022b0 47412405 706c7567 696e206e 616d653a  GA$.plugin name:
 a022c0 20676363 2d616e6e 6f62696e 00000000   gcc-annobin....
 a022d0 0b000000 00000000 00010000 47412a47  ............GA*G
 a022e0 4f57002a 05020000 06000000 00000000  OW.*............
 a022f0 00010000 47412a02 00000000 0f000000  ....GA*.........
 a02300 00000000 00010000 47412b73 7461636b  ........GA+stack
 a02310 5f636c61 73680000 13000000 00000000  _clash..........
 a02320 00010000 47412a63 665f7072 6f746563  ....GA*cf_protec
 a02330 74696f6e 00080000 0d000000 00000000  tion............
 a02340 00010000 47412a46 4f525449 465900ff  ....GA*FORTIFY..
 a02350 00000000 16000000 00000000 00010000  ................
 a02360 47412b47 4c494243 58585f41 53534552  GA+GLIBCXX_ASSER
 a02370 54494f4e 53000000 06000000 00000000  TIONS...........
 a02380 00010000 47412a07 03000000 05000000  ....GA*.........
 a02390 00000000 00010000 47412108 00000000  ........GA!.....
 a023a0 16000000 00000000 00010000 47412b6f  ............GA+o
 a023b0 6d69745f 6672616d 655f706f 696e7465  mit_frame_pointe
 a023c0 72000000 06000000 00000000 00010000  r...............
 a023d0 47412a06 12000000 11000000 00000000  GA*.............
 a023e0 00010000 47412173 7461636b 5f726561  ....GA!stack_rea
 a023f0 6c69676e 00000000 0b000000 10000000  lign............
 a02400 00010000 47412401 33703131 31330000  ....GA$.3p1113..
 a02410 10064000 00000000 10064000 00000000  ..@.......@.....
 a02420 1f000000 00000000 00010000 47412405  ............GA$.
 a02430 72756e6e 696e6720 67636320 382e352e  running gcc 8.5.
 a02440 30203230 32313035 31340000 1f000000  0 20210514......
 a02450 00000000 00010000 47412405 616e6e6f  ........GA$.anno
 a02460 62696e20 67636320 382e352e 30203230  bin gcc 8.5.0 20
 a02470 32313035 31340000 1d000000 00000000  210514..........
 a02480 00010000 47412405 706c7567 696e206e  ....GA$.plugin n
 a02490 616d653a 20676363 2d616e6e 6f62696e  ame: gcc-annobin
 a024a0 00000000 0b000000 00000000 00010000  ................
 a024b0 47412a47 4f57002a 05020000 06000000  GA*GOW.*........
 a024c0 00000000 00010000 47412a02 00000000  ........GA*.....
 a024d0 0f000000 00000000 00010000 47412b73  ............GA+s
 a024e0 7461636b 5f636c61 73680000 13000000  tack_clash......
 a024f0 00000000 00010000 47412a63 665f7072  ........GA*cf_pr
 a02500 6f746563 74696f6e 00080000 0d000000  otection........
 a02510 00000000 00010000 47412a46 4f525449  ........GA*FORTI
 a02520 465900ff 00000000 16000000 00000000  FY..............
 a02530 00010000 47412b47 4c494243 58585f41  ....GA+GLIBCXX_A
 a02540 53534552 54494f4e 53000000 06000000  SSERTIONS.......
 a02550 00000000 00010000 47412a07 03000000  ........GA*.....
 a02560 05000000 00000000 00010000 47412108  ............GA!.
 a02570 00000000 16000000 00000000 00010000  ................
 a02580 47412b6f 6d69745f 6672616d 655f706f  GA+omit_frame_po
 a02590 696e7465 72000000 06000000 00000000  inter...........
 a025a0 00010000 47412a06 12000000 11000000  ....GA*.........
 a025b0 00000000 00010000 47412173 7461636b  ........GA!stack
 a025c0 5f726561 6c69676e 00000000 0b000000  _realign........
 a025d0 10000000 00010000 47412401 33703131  ........GA$.3p11
 a025e0 31330000 10064000 00000000 10064000  13....@.......@.
 a025f0 00000000 1f000000 00000000 00010000  ................
 a02600 47412405 72756e6e 696e6720 67636320  GA$.running gcc 
 a02610 382e352e 30203230 32313035 31340000  8.5.0 20210514..
 a02620 1f000000 00000000 00010000 47412405  ............GA$.
 a02630 616e6e6f 62696e20 67636320 382e352e  annobin gcc 8.5.
 a02640 30203230 32313035 31340000 1d000000  0 20210514......
 a02650 00000000 00010000 47412405 706c7567  ........GA$.plug
 a02660 696e206e 616d653a 20676363 2d616e6e  in name: gcc-ann
 a02670 6f62696e 00000000 0b000000 00000000  obin............
 a02680 00010000 47412a47 4f57002a 05020000  ....GA*GOW.*....
 a02690 06000000 00000000 00010000 47412a02  ............GA*.
 a026a0 00000000 0f000000 00000000 00010000  ................
 a026b0 47412b73 7461636b 5f636c61 73680000  GA+stack_clash..
 a026c0 13000000 00000000 00010000 47412a63  ............GA*c
 a026d0 665f7072 6f746563 74696f6e 00080000  f_protection....
 a026e0 0d000000 00000000 00010000 47412a46  ............GA*F
 a026f0 4f525449 465900ff 00000000 16000000  ORTIFY..........
 a02700 00000000 00010000 47412b47 4c494243  ........GA+GLIBC
 a02710 58585f41 53534552 54494f4e 53000000  XX_ASSERTIONS...
 a02720 06000000 00000000 00010000 47412a07  ............GA*.
 a02730 03000000 05000000 00000000 00010000  ................
 a02740 47412108 00000000 16000000 00000000  GA!.............
 a02750 00010000 47412b6f 6d69745f 6672616d  ....GA+omit_fram
 a02760 655f706f 696e7465 72000000 06000000  e_pointer.......
 a02770 00000000 00010000 47412a06 12000000  ........GA*.....
 a02780 11000000 00000000 00010000 47412173  ............GA!s
 a02790 7461636b 5f726561 6c69676e 00000000  tack_realign....
 a027a0 0b000000 10000000 00010000 47412401  ............GA$.
 a027b0 33703131 31330000 10064000 00000000  3p1113....@.....
 a027c0 10064000 00000000 1f000000 00000000  ..@.............
 a027d0 00010000 47412405 72756e6e 696e6720  ....GA$.running 
 a027e0 67636320 382e352e 30203230 32313035  gcc 8.5.0 202105
 a027f0 31340000 1f000000 00000000 00010000  14..............
 a02800 47412405 616e6e6f 62696e20 67636320  GA$.annobin gcc 
 a02810 382e352e 30203230 32313035 31340000  8.5.0 20210514..
 a02820 1d000000 00000000 00010000 47412405  ............GA$.
 a02830 706c7567 696e206e 616d653a 20676363  plugin name: gcc
 a02840 2d616e6e 6f62696e 00000000 0b000000  -annobin........
 a02850 00000000 00010000 47412a47 4f57002a  ........GA*GOW.*
 a02860 05020000 06000000 00000000 00010000  ................
 a02870 47412a02 00000000 0f000000 00000000  GA*.............
 a02880 00010000 47412b73 7461636b 5f636c61  ....GA+stack_cla
 a02890 73680000 13000000 00000000 00010000  sh..............
 a028a0 47412a63 665f7072 6f746563 74696f6e  GA*cf_protection
 a028b0 00080000 0d000000 00000000 00010000  ................
 a028c0 47412a46 4f525449 465900ff 00000000  GA*FORTIFY......
 a028d0 16000000 00000000 00010000 47412b47  ............GA+G
 a028e0 4c494243 58585f41 53534552 54494f4e  LIBCXX_ASSERTION
 a028f0 53000000 06000000 00000000 00010000  S...............
 a02900 47412a07 03000000 05000000 00000000  GA*.............
 a02910 00010000 47412108 00000000 16000000  ....GA!.........
 a02920 00000000 00010000 47412b6f 6d69745f  ........GA+omit_
 a02930 6672616d 655f706f 696e7465 72000000  frame_pointer...
 a02940 06000000 00000000 00010000 47412a06  ............GA*.
 a02950 12000000 11000000 00000000 00010000  ................
 a02960 47412173 7461636b 5f726561 6c69676e  GA!stack_realign
 a02970 00000000 0b000000 10000000 00010000  ................
 a02980 47412401 33703131 31330000 a00c4000  GA$.3p1113....@.
 a02990 00000000 9f0c4000 00000000 1f000000  ......@.........
 a029a0 00000000 00010000 47412405 72756e6e  ........GA$.runn
 a029b0 696e6720 67636320 382e352e 30203230  ing gcc 8.5.0 20
 a029c0 32313035 31340000 1f000000 00000000  210514..........
 a029d0 00010000 47412405 616e6e6f 62696e20  ....GA$.annobin 
 a029e0 67636320 382e352e 30203230 32313035  gcc 8.5.0 202105
 a029f0 31340000 1d000000 00000000 00010000  14..............
 a02a00 47412405 706c7567 696e206e 616d653a  GA$.plugin name:
 a02a10 20676363 2d616e6e 6f62696e 00000000   gcc-annobin....
 a02a20 0b000000 00000000 00010000 47412a47  ............GA*G
 a02a30 4f57002a 05020000 06000000 00000000  OW.*............
 a02a40 00010000 47412a02 00000000 0f000000  ....GA*.........
 a02a50 00000000 00010000 47412b73 7461636b  ........GA+stack
 a02a60 5f636c61 73680000 13000000 00000000  _clash..........
 a02a70 00010000 47412a63 665f7072 6f746563  ....GA*cf_protec
 a02a80 74696f6e 00080000 0d000000 00000000  tion............
 a02a90 00010000 47412a46 4f525449 465900ff  ....GA*FORTIFY..
 a02aa0 00000000 16000000 00000000 00010000  ................
 a02ab0 47412b47 4c494243 58585f41 53534552  GA+GLIBCXX_ASSER
 a02ac0 54494f4e 53000000 06000000 00000000  TIONS...........
 a02ad0 00010000 47412a07 03000000 05000000  ....GA*.........
 a02ae0 00000000 00010000 47412108 00000000  ........GA!.....
 a02af0 16000000 00000000 00010000 47412b6f  ............GA+o
 a02b00 6d69745f 6672616d 655f706f 696e7465  mit_frame_pointe
 a02b10 72000000 06000000 00000000 00010000  r...............
 a02b20 47412a06 12000000 11000000 00000000  GA*.............
 a02b30 00010000 47412173 7461636b 5f726561  ....GA!stack_rea
 a02b40 6c69676e 00000000 0d000000 10000000  lign............
 a02b50 01010000 47412a46 4f525449 465900ff  ....GA*FORTIFY..
 a02b60 00000000 a00c4000 00000000 a50c4000  ......@.......@.
 a02b70 00000000 16000000 10000000 01010000  ................
 a02b80 47412b47 4c494243 58585f41 53534552  GA+GLIBCXX_ASSER
 a02b90 54494f4e 53000000 a00c4000 00000000  TIONS.....@.....
 a02ba0 a50c4000 00000000 0b000000 10000000  ..@.............
 a02bb0 00010000 47412401 33703131 31330000  ....GA$.3p1113..
 a02bc0 630c4000 00000000 630c4000 00000000  c.@.....c.@.....
 a02bd0 1f000000 00000000 00010000 47412405  ............GA$.
 a02be0 72756e6e 696e6720 67636320 382e352e  running gcc 8.5.
 a02bf0 30203230 32313035 31340000 1f000000  0 20210514......
 a02c00 00000000 00010000 47412405 616e6e6f  ........GA$.anno
 a02c10 62696e20 67636320 382e352e 30203230  bin gcc 8.5.0 20
 a02c20 32313035 31340000 1d000000 00000000  210514..........
 a02c30 00010000 47412405 706c7567 696e206e  ....GA$.plugin n
 a02c40 616d653a 20676363 2d616e6e 6f62696e  ame: gcc-annobin
 a02c50 00000000 0b000000 00000000 00010000  ................
 a02c60 47412a47 4f57002a 05020000 06000000  GA*GOW.*........
 a02c70 00000000 00010000 47412a02 00000000  ........GA*.....
 a02c80 0f000000 00000000 00010000 47412b73  ............GA+s
 a02c90 7461636b 5f636c61 73680000 13000000  tack_clash......
 a02ca0 00000000 00010000 47412a63 665f7072  ........GA*cf_pr
 a02cb0 6f746563 74696f6e 00080000 0d000000  otection........
 a02cc0 00000000 00010000 47412a46 4f525449  ........GA*FORTI
 a02cd0 465900ff 00000000 16000000 00000000  FY..............
 a02ce0 00010000 47412b47 4c494243 58585f41  ....GA+GLIBCXX_A
 a02cf0 53534552 54494f4e 53000000 06000000  SSERTIONS.......
 a02d00 00000000 00010000 47412a07 03000000  ........GA*.....
 a02d10 05000000 00000000 00010000 47412108  ............GA!.
 a02d20 00000000 16000000 00000000 00010000  ................
 a02d30 47412b6f 6d69745f 6672616d 655f706f  GA+omit_frame_po
 a02d40 696e7465 72000000 06000000 00000000  inter...........
 a02d50 00010000 47412a06 12000000 11000000  ....GA*.........
 a02d60 00000000 00010000 47412173 7461636b  ........GA!stack
 a02d70 5f726561 6c69676e 00000000 0b000000  _realign........
 a02d80 10000000 00010000 47412401 33703131  ........GA$.3p11
 a02d90 31330000 10064000 00000000 10064000  13....@.......@.
 a02da0 00000000 1f000000 00000000 00010000  ................
 a02db0 47412405 72756e6e 696e6720 67636320  GA$.running gcc 
 a02dc0 382e352e 30203230 32313035 31340000  8.5.0 20210514..
 a02dd0 1f000000 00000000 00010000 47412405  ............GA$.
 a02de0 616e6e6f 62696e20 67636320 382e352e  annobin gcc 8.5.
 a02df0 30203230 32313035 31340000 1d000000  0 20210514......
 a02e00 00000000 00010000 47412405 706c7567  ........GA$.plug
 a02e10 696e206e 616d653a 20676363 2d616e6e  in name: gcc-ann
 a02e20 6f62696e 00000000 0b000000 00000000  obin............
 a02e30 00010000 47412a47 4f57002a 05020000  ....GA*GOW.*....
 a02e40 06000000 00000000 00010000 47412a02  ............GA*.
 a02e50 00000000 0f000000 00000000 00010000  ................
 a02e60 47412b73 7461636b 5f636c61 73680000  GA+stack_clash..
 a02e70 13000000 00000000 00010000 47412a63  ............GA*c
 a02e80 665f7072 6f746563 74696f6e 00080000  f_protection....
 a02e90 0d000000 00000000 00010000 47412a46  ............GA*F
 a02ea0 4f525449 465900ff 00000000 16000000  ORTIFY..........
 a02eb0 00000000 00010000 47412b47 4c494243  ........GA+GLIBC
 a02ec0 58585f41 53534552 54494f4e 53000000  XX_ASSERTIONS...
 a02ed0 06000000 00000000 00010000 47412a07  ............GA*.
 a02ee0 03000000 05000000 00000000 00010000  ................
 a02ef0 47412108 00000000 16000000 00000000  GA!.............
 a02f00 00010000 47412b6f 6d69745f 6672616d  ....GA+omit_fram
 a02f10 655f706f 696e7465 72000000 06000000  e_pointer.......
 a02f20 00000000 00010000 47412a06 12000000  ........GA*.....
 a02f30 11000000 00000000 00010000 47412173  ............GA!s
 a02f40 7461636b 5f726561 6c69676e 00000000  tack_realign....
 a02f50 0b000000 10000000 00010000 47412401  ............GA$.
 a02f60 33703131 31330000 10064000 00000000  3p1113....@.....
 a02f70 10064000 00000000 1f000000 00000000  ..@.............
 a02f80 00010000 47412405 72756e6e 696e6720  ....GA$.running 
 a02f90 67636320 382e352e 30203230 32313035  gcc 8.5.0 202105
 a02fa0 31340000 1f000000 00000000 00010000  14..............
 a02fb0 47412405 616e6e6f 62696e20 67636320  GA$.annobin gcc 
 a02fc0 382e352e 30203230 32313035 31340000  8.5.0 20210514..
 a02fd0 1d000000 00000000 00010000 47412405  ............GA$.
 a02fe0 706c7567 696e206e 616d653a 20676363  plugin name: gcc
 a02ff0 2d616e6e 6f62696e 00000000 0b000000  -annobin........
 a03000 00000000 00010000 47412a47 4f57002a  ........GA*GOW.*
 a03010 05020000 06000000 00000000 00010000  ................
 a03020 47412a02 00000000 0f000000 00000000  GA*.............
 a03030 00010000 47412b73 7461636b 5f636c61  ....GA+stack_cla
 a03040 73680000 13000000 00000000 00010000  sh..............
 a03050 47412a63 665f7072 6f746563 74696f6e  GA*cf_protection
 a03060 00080000 0d000000 00000000 00010000  ................
 a03070 47412a46 4f525449 465900ff 00000000  GA*FORTIFY......
 a03080 16000000 00000000 00010000 47412b47  ............GA+G
 a03090 4c494243 58585f41 53534552 54494f4e  LIBCXX_ASSERTION
 a030a0 53000000 06000000 00000000 00010000  S...............
 a030b0 47412a07 03000000 05000000 00000000  GA*.............
 a030c0 00010000 47412108 00000000 16000000  ....GA!.........
 a030d0 00000000 00010000 47412b6f 6d69745f  ........GA+omit_
 a030e0 6672616d 655f706f 696e7465 72000000  frame_pointer...
 a030f0 06000000 00000000 00010000 47412a06  ............GA*.
 a03100 12000000 11000000 00000000 00010000  ................
 a03110 47412173 7461636b 5f726561 6c69676e  GA!stack_realign
 a03120 00000000 0b000000 10000000 00010000  ................
 a03130 47412401 33703131 31330000 10064000  GA$.3p1113....@.
 a03140 00000000 10064000 00000000 1f000000  ......@.........
 a03150 00000000 00010000 47412405 72756e6e  ........GA$.runn
 a03160 696e6720 67636320 382e352e 30203230  ing gcc 8.5.0 20
 a03170 32313035 31340000 1f000000 00000000  210514..........
 a03180 00010000 47412405 616e6e6f 62696e20  ....GA$.annobin 
 a03190 67636320 382e352e 30203230 32313035  gcc 8.5.0 202105
 a031a0 31340000 1d000000 00000000 00010000  14..............
 a031b0 47412405 706c7567 696e206e 616d653a  GA$.plugin name:
 a031c0 20676363 2d616e6e 6f62696e 00000000   gcc-annobin....
 a031d0 0b000000 00000000 00010000 47412a47  ............GA*G
 a031e0 4f57002a 05020000 06000000 00000000  OW.*............
 a031f0 00010000 47412a02 00000000 0f000000  ....GA*.........
 a03200 00000000 00010000 47412b73 7461636b  ........GA+stack
 a03210 5f636c61 73680000 13000000 00000000  _clash..........
 a03220 00010000 47412a63 665f7072 6f746563  ....GA*cf_protec
 a03230 74696f6e 00080000 0d000000 00000000  tion............
 a03240 00010000 47412a46 4f525449 465900ff  ....GA*FORTIFY..
 a03250 00000000 16000000 00000000 00010000  ................
 a03260 47412b47 4c494243 58585f41 53534552  GA+GLIBCXX_ASSER
 a03270 54494f4e 53000000 06000000 00000000  TIONS...........
 a03280 00010000 47412a07 03000000 05000000  ....GA*.........
 a03290 00000000 00010000 47412108 00000000  ........GA!.....
 a032a0 16000000 00000000 00010000 47412b6f  ............GA+o
 a032b0 6d69745f 6672616d 655f706f 696e7465  mit_frame_pointe
 a032c0 72000000 06000000 00000000 00010000  r...............
 a032d0 47412a06 12000000 11000000 00000000  GA*.............
 a032e0 00010000 47412173 7461636b 5f726561  ....GA!stack_rea
 a032f0 6c69676e 00000000 08000000 10000000  lign............
 a03300 00010000 47412401 33613100 700c4000  ....GA$.3a1.p.@.
 a03310 00000000 9f0c4000 00000000 08000000  ......@.........
 a03320 10000000 00010000 47412401 33613100  ........GA$.3a1.
 a03330 9f0c4000 00000000 9f0c4000 00000000  ..@.......@.....
 a03340 08000000 10000000 00010000 47412401  ............GA$.
 a03350 33613100 a50c4000 00000000 a50c4000  3a1...@.......@.
 a03360 00000000 08000000 10000000 00010000  ................
 a03370 47412401 33613100 80054000 00000000  GA$.3a1...@.....
 a03380 96054000 00000000 08000000 10000000  ..@.............
 a03390 00010000 47412401 33613100 a8154000  ....GA$.3a1...@.
 a033a0 00000000 b0154000 00000000 08000000  ......@.........
 a033b0 10000000 00010000 47412401 33613100  ........GA$.3a1.
 a033c0 b00c4000 00000000 560d4000 00000000  ..@.....V.@.....
 a033d0 0b000000 10000000 00010000 47412401  ............GA$.
 a033e0 33703131 31330000 30154000 00000000  3p1113..0.@.....
 a033f0 a5154000 00000000 1f000000 00000000  ..@.............
 a03400 00010000 47412405 72756e6e 696e6720  ....GA$.running 
 a03410 67636320 382e352e 30203230 32313035  gcc 8.5.0 202105
 a03420 31340000 1f000000 00000000 00010000  14..............
 a03430 47412405 616e6e6f 62696e20 67636320  GA$.annobin gcc 
 a03440 382e352e 30203230 32313035 31340000  8.5.0 20210514..
 a03450 1d000000 00000000 00010000 47412405  ............GA$.
 a03460 706c7567 696e206e 616d653a 20676363  plugin name: gcc
 a03470 2d616e6e 6f62696e 00000000 0b000000  -annobin........
 a03480 00000000 00010000 47412a47 4f57002a  ........GA*GOW.*
 a03490 05020000 06000000 00000000 00010000  ................
 a034a0 47412a02 03000000 0f000000 00000000  GA*.............
 a034b0 00010000 47412b73 7461636b 5f636c61  ....GA+stack_cla
 a034c0 73680000 13000000 00000000 00010000  sh..............
 a034d0 47412a63 665f7072 6f746563 74696f6e  GA*cf_protection
 a034e0 00080000 0d000000 00000000 00010000  ................
 a034f0 47412a46 4f525449 46590002 00000000  GA*FORTIFY......
 a03500 16000000 00000000 00010000 47412b47  ............GA+G
 a03510 4c494243 58585f41 53534552 54494f4e  LIBCXX_ASSERTION
 a03520 53000000 06000000 00000000 00010000  S...............
 a03530 47412a07 02000000 05000000 00000000  GA*.............
 a03540 00010000 47412108 00000000 16000000  ....GA!.........
 a03550 00000000 00010000 47412b6f 6d69745f  ........GA+omit_
 a03560 6672616d 655f706f 696e7465 72000000  frame_pointer...
 a03570 06000000 00000000 00010000 47412a06  ............GA*.
 a03580 12000000 11000000 00000000 00010000  ................
 a03590 47412173 7461636b 5f726561 6c69676e  GA!stack_realign
 a035a0 00000000 0d000000 10000000 01010000  ................
 a035b0 47412a46 4f525449 46590002 00000000  GA*FORTIFY......
 a035c0 30154000 00000000 95154000 00000000  0.@.......@.....
 a035d0 16000000 10000000 01010000 47412b47  ............GA+G
 a035e0 4c494243 58585f41 53534552 54494f4e  LIBCXX_ASSERTION
 a035f0 53000000 30154000 00000000 95154000  S...0.@.......@.
 a03600 00000000 0d000000 10000000 01010000  ................
 a03610 47412a46 4f525449 46590002 00000000  GA*FORTIFY......
 a03620 95154000 00000000 a5154000 00000000  ..@.......@.....
 a03630 16000000 10000000 01010000 47412b47  ............GA+G
 a03640 4c494243 58585f41 53534552 54494f4e  LIBCXX_ASSERTION
 a03650 53000000 95154000 00000000 a5154000  S.....@.......@.
 a03660 00000000 0b000000 10000000 00010000  ................
 a03670 47412401 33703131 31330000 630c4000  GA$.3p1113..c.@.
 a03680 00000000 630c4000 00000000 1f000000  ....c.@.........
 a03690 00000000 00010000 47412405 72756e6e  ........GA$.runn
 a036a0 696e6720 67636320 382e352e 30203230  ing gcc 8.5.0 20
 a036b0 32313035 31340000 1f000000 00000000  210514..........
 a036c0 00010000 47412405 616e6e6f 62696e20  ....GA$.annobin 
 a036d0 67636320 382e352e 30203230 32313035  gcc 8.5.0 202105
 a036e0 31340000 1d000000 00000000 00010000  14..............
 a036f0 47412405 706c7567 696e206e 616d653a  GA$.plugin name:
 a03700 20676363 2d616e6e 6f62696e 00000000   gcc-annobin....
 a03710 0b000000 00000000 00010000 47412a47  ............GA*G
 a03720 4f57002a 05020000 06000000 00000000  OW.*............
 a03730 00010000 47412a02 03000000 0f000000  ....GA*.........
 a03740 00000000 00010000 47412b73 7461636b  ........GA+stack
 a03750 5f636c61 73680000 13000000 00000000  _clash..........
 a03760 00010000 47412a63 665f7072 6f746563  ....GA*cf_protec
 a03770 74696f6e 00080000 0d000000 00000000  tion............
 a03780 00010000 47412a46 4f525449 46590002  ....GA*FORTIFY..
 a03790 00000000 16000000 00000000 00010000  ................
 a037a0 47412b47 4c494243 58585f41 53534552  GA+GLIBCXX_ASSER
 a037b0 54494f4e 53000000 06000000 00000000  TIONS...........
 a037c0 00010000 47412a07 02000000 05000000  ....GA*.........
 a037d0 00000000 00010000 47412108 00000000  ........GA!.....
 a037e0 16000000 00000000 00010000 47412b6f  ............GA+o
 a037f0 6d69745f 6672616d 655f706f 696e7465  mit_frame_pointe
 a03800 72000000 06000000 00000000 00010000  r...............
 a03810 47412a06 12000000 11000000 00000000  GA*.............
 a03820 00010000 47412173 7461636b 5f726561  ....GA!stack_rea
 a03830 6c69676e 00000000 0b000000 10000000  lign............
 a03840 00010000 47412401 33703131 31330000  ....GA$.3p1113..
 a03850 10064000 00000000 10064000 00000000  ..@.......@.....
 a03860 1f000000 00000000 00010000 47412405  ............GA$.
 a03870 72756e6e 696e6720 67636320 382e352e  running gcc 8.5.
 a03880 30203230 32313035 31340000 1f000000  0 20210514......
 a03890 00000000 00010000 47412405 616e6e6f  ........GA$.anno
 a038a0 62696e20 67636320 382e352e 30203230  bin gcc 8.5.0 20
 a038b0 32313035 31340000 1d000000 00000000  210514..........
 a038c0 00010000 47412405 706c7567 696e206e  ....GA$.plugin n
 a038d0 616d653a 20676363 2d616e6e 6f62696e  ame: gcc-annobin
 a038e0 00000000 0b000000 00000000 00010000  ................
 a038f0 47412a47 4f57002a 05020000 06000000  GA*GOW.*........
 a03900 00000000 00010000 47412a02 03000000  ........GA*.....
 a03910 0f000000 00000000 00010000 47412b73  ............GA+s
 a03920 7461636b 5f636c61 73680000 13000000  tack_clash......
 a03930 00000000 00010000 47412a63 665f7072  ........GA*cf_pr
 a03940 6f746563 74696f6e 00080000 0d000000  otection........
 a03950 00000000 00010000 47412a46 4f525449  ........GA*FORTI
 a03960 46590002 00000000 16000000 00000000  FY..............
 a03970 00010000 47412b47 4c494243 58585f41  ....GA+GLIBCXX_A
 a03980 53534552 54494f4e 53000000 06000000  SSERTIONS.......
 a03990 00000000 00010000 47412a07 02000000  ........GA*.....
 a039a0 05000000 00000000 00010000 47412108  ............GA!.
 a039b0 00000000 16000000 00000000 00010000  ................
 a039c0 47412b6f 6d69745f 6672616d 655f706f  GA+omit_frame_po
 a039d0 696e7465 72000000 06000000 00000000  inter...........
 a039e0 00010000 47412a06 12000000 11000000  ....GA*.........
 a039f0 00000000 00010000 47412173 7461636b  ........GA!stack
 a03a00 5f726561 6c69676e 00000000 0b000000  _realign........
 a03a10 10000000 00010000 47412401 33703131  ........GA$.3p11
 a03a20 31330000 630c4000 00000000 630c4000  13..c.@.....c.@.
 a03a30 00000000 1f000000 00000000 00010000  ................
 a03a40 47412405 72756e6e 696e6720 67636320  GA$.running gcc 
 a03a50 382e352e 30203230 32313035 31340000  8.5.0 20210514..
 a03a60 1f000000 00000000 00010000 47412405  ............GA$.
 a03a70 616e6e6f 62696e20 67636320 382e352e  annobin gcc 8.5.
 a03a80 30203230 32313035 31340000 1d000000  0 20210514......
 a03a90 00000000 00010000 47412405 706c7567  ........GA$.plug
 a03aa0 696e206e 616d653a 20676363 2d616e6e  in name: gcc-ann
 a03ab0 6f62696e 00000000 0b000000 00000000  obin............
 a03ac0 00010000 47412a47 4f57002a 05020000  ....GA*GOW.*....
 a03ad0 06000000 00000000 00010000 47412a02  ............GA*.
 a03ae0 03000000 0f000000 00000000 00010000  ................
 a03af0 47412b73 7461636b 5f636c61 73680000  GA+stack_clash..
 a03b00 13000000 00000000 00010000 47412a63  ............GA*c
 a03b10 665f7072 6f746563 74696f6e 00080000  f_protection....
 a03b20 0d000000 00000000 00010000 47412a46  ............GA*F
 a03b30 4f525449 46590002 00000000 16000000  ORTIFY..........
 a03b40 00000000 00010000 47412b47 4c494243  ........GA+GLIBC
 a03b50 58585f41 53534552 54494f4e 53000000  XX_ASSERTIONS...
 a03b60 06000000 00000000 00010000 47412a07  ............GA*.
 a03b70 02000000 05000000 00000000 00010000  ................
 a03b80 47412108 00000000 16000000 00000000  GA!.............
 a03b90 00010000 47412b6f 6d69745f 6672616d  ....GA+omit_fram
 a03ba0 655f706f 696e7465 72000000 06000000  e_pointer.......
 a03bb0 00000000 00010000 47412a06 12000000  ........GA*.....
 a03bc0 11000000 00000000 00010000 47412173  ............GA!s
 a03bd0 7461636b 5f726561 6c69676e 00000000  tack_realign....
 a03be0 0b000000 10000000 00010000 47412401  ............GA$.
 a03bf0 33703131 31330000 10064000 00000000  3p1113....@.....
 a03c00 10064000 00000000 1f000000 00000000  ..@.............
 a03c10 00010000 47412405 72756e6e 696e6720  ....GA$.running 
 a03c20 67636320 382e352e 30203230 32313035  gcc 8.5.0 202105
 a03c30 31340000 1f000000 00000000 00010000  14..............
 a03c40 47412405 616e6e6f 62696e20 67636320  GA$.annobin gcc 
 a03c50 382e352e 30203230 32313035 31340000  8.5.0 20210514..
 a03c60 1d000000 00000000 00010000 47412405  ............GA$.
 a03c70 706c7567 696e206e 616d653a 20676363  plugin name: gcc
 a03c80 2d616e6e 6f62696e 00000000 0b000000  -annobin........
 a03c90 00000000 00010000 47412a47 4f57002a  ........GA*GOW.*
 a03ca0 05020000 06000000 00000000 00010000  ................
 a03cb0 47412a02 03000000 0f000000 00000000  GA*.............
 a03cc0 00010000 47412b73 7461636b 5f636c61  ....GA+stack_cla
 a03cd0 73680000 13000000 00000000 00010000  sh..............
 a03ce0 47412a63 665f7072 6f746563 74696f6e  GA*cf_protection
 a03cf0 00080000 0d000000 00000000 00010000  ................
 a03d00 47412a46 4f525449 46590002 00000000  GA*FORTIFY......
 a03d10 16000000 00000000 00010000 47412b47  ............GA+G
 a03d20 4c494243 58585f41 53534552 54494f4e  LIBCXX_ASSERTION
 a03d30 53000000 06000000 00000000 00010000  S...............
 a03d40 47412a07 02000000 05000000 00000000  GA*.............
 a03d50 00010000 47412108 00000000 16000000  ....GA!.........
 a03d60 00000000 00010000 47412b6f 6d69745f  ........GA+omit_
 a03d70 6672616d 655f706f 696e7465 72000000  frame_pointer...
 a03d80 06000000 00000000 00010000 47412a06  ............GA*.
 a03d90 12000000 11000000 00000000 00010000  ................
 a03da0 47412173 7461636b 5f726561 6c69676e  GA!stack_realign
 a03db0 00000000 08000000 10000000 00010000  ................
 a03dc0 47412401 33613100 a5154000 00000000  GA$.3a1...@.....
 a03dd0 a5154000 00000000 08000000 10000000  ..@.............
 a03de0 00010000 47412401 33613100 a5154000  ....GA$.3a1...@.
 a03df0 00000000 a5154000 00000000 08000000  ......@.........
 a03e00 10000000 00010000 47412401 33613100  ........GA$.3a1.
 a03e10 96054000 00000000 9b054000 00000000  ..@.......@.....
 a03e20 08000000 10000000 00010000 47412401  ............GA$.
 a03e30 33613100 b0154000 00000000 b5154000  3a1...@.......@.
 a03e40 00000000                             ....            

Disassembly of section .init:

0000000000400580 <_init>:
  400580:	f3 0f 1e fa          	endbr64 
  400584:	48 83 ec 08          	sub    $0x8,%rsp
  400588:	48 8b 05 61 1a 20 00 	mov    0x201a61(%rip),%rax        # 601ff0 <__gmon_start__@Base>
  40058f:	48 85 c0             	test   %rax,%rax
  400592:	74 02                	je     400596 <_init+0x16>
  400594:	ff d0                	callq  *%rax
  400596:	48 83 c4 08          	add    $0x8,%rsp
  40059a:	c3                   	retq   

Disassembly of section .plt:

00000000004005a0 <.plt>:
  4005a0:	ff 35 62 1a 20 00    	pushq  0x201a62(%rip)        # 602008 <_GLOBAL_OFFSET_TABLE_+0x8>
  4005a6:	ff 25 64 1a 20 00    	jmpq   *0x201a64(%rip)        # 602010 <_GLOBAL_OFFSET_TABLE_+0x10>
  4005ac:	0f 1f 40 00          	nopl   0x0(%rax)

00000000004005b0 <free@plt>:
  4005b0:	ff 25 62 1a 20 00    	jmpq   *0x201a62(%rip)        # 602018 <free@GLIBC_2.2.5>
  4005b6:	68 00 00 00 00       	pushq  $0x0
  4005bb:	e9 e0 ff ff ff       	jmpq   4005a0 <.plt>

00000000004005c0 <printf@plt>:
  4005c0:	ff 25 5a 1a 20 00    	jmpq   *0x201a5a(%rip)        # 602020 <printf@GLIBC_2.2.5>
  4005c6:	68 01 00 00 00       	pushq  $0x1
  4005cb:	e9 d0 ff ff ff       	jmpq   4005a0 <.plt>

00000000004005d0 <srand@plt>:
  4005d0:	ff 25 52 1a 20 00    	jmpq   *0x201a52(%rip)        # 602028 <srand@GLIBC_2.2.5>
  4005d6:	68 02 00 00 00       	pushq  $0x2
  4005db:	e9 c0 ff ff ff       	jmpq   4005a0 <.plt>

00000000004005e0 <time@plt>:
  4005e0:	ff 25 4a 1a 20 00    	jmpq   *0x201a4a(%rip)        # 602030 <time@GLIBC_2.2.5>
  4005e6:	68 03 00 00 00       	pushq  $0x3
  4005eb:	e9 b0 ff ff ff       	jmpq   4005a0 <.plt>

00000000004005f0 <posix_memalign@plt>:
  4005f0:	ff 25 42 1a 20 00    	jmpq   *0x201a42(%rip)        # 602038 <posix_memalign@GLIBC_2.2.5>
  4005f6:	68 04 00 00 00       	pushq  $0x4
  4005fb:	e9 a0 ff ff ff       	jmpq   4005a0 <.plt>

0000000000400600 <rand@plt>:
  400600:	ff 25 3a 1a 20 00    	jmpq   *0x201a3a(%rip)        # 602040 <rand@GLIBC_2.2.5>
  400606:	68 05 00 00 00       	pushq  $0x5
  40060b:	e9 90 ff ff ff       	jmpq   4005a0 <.plt>

Disassembly of section .text:

0000000000400610 <main>:
  400610:	4c 8d 54 24 08       	lea    0x8(%rsp),%r10
  400615:	48 83 e4 e0          	and    $0xffffffffffffffe0,%rsp
  400619:	ba 00 80 00 00       	mov    $0x8000,%edx
  40061e:	be 20 00 00 00       	mov    $0x20,%esi
  400623:	41 ff 72 f8          	pushq  -0x8(%r10)
  400627:	55                   	push   %rbp
  400628:	48 89 e5             	mov    %rsp,%rbp
  40062b:	41 57                	push   %r15
  40062d:	41 56                	push   %r14
  40062f:	48 8d bd 78 ff ff ff 	lea    -0x88(%rbp),%rdi
  400636:	41 55                	push   %r13
  400638:	41 54                	push   %r12
  40063a:	41 52                	push   %r10
  40063c:	53                   	push   %rbx
  40063d:	31 db                	xor    %ebx,%ebx
  40063f:	48 83 c4 80          	add    $0xffffffffffffff80,%rsp
  400643:	e8 a8 ff ff ff       	callq  4005f0 <posix_memalign@plt>
  400648:	ba 00 80 00 00       	mov    $0x8000,%edx
  40064d:	be 20 00 00 00       	mov    $0x20,%esi
  400652:	48 8d 7d 80          	lea    -0x80(%rbp),%rdi
  400656:	e8 95 ff ff ff       	callq  4005f0 <posix_memalign@plt>
  40065b:	ba 00 80 00 00       	mov    $0x8000,%edx
  400660:	be 20 00 00 00       	mov    $0x20,%esi
  400665:	48 8d 7d 88          	lea    -0x78(%rbp),%rdi
  400669:	e8 82 ff ff ff       	callq  4005f0 <posix_memalign@plt>
  40066e:	ba 00 80 00 00       	mov    $0x8000,%edx
  400673:	be 20 00 00 00       	mov    $0x20,%esi
  400678:	48 8d 7d 90          	lea    -0x70(%rbp),%rdi
  40067c:	e8 6f ff ff ff       	callq  4005f0 <posix_memalign@plt>
  400681:	ba 00 80 00 00       	mov    $0x8000,%edx
  400686:	be 20 00 00 00       	mov    $0x20,%esi
  40068b:	48 8d 7d 98          	lea    -0x68(%rbp),%rdi
  40068f:	e8 5c ff ff ff       	callq  4005f0 <posix_memalign@plt>
  400694:	ba 00 80 00 00       	mov    $0x8000,%edx
  400699:	be 20 00 00 00       	mov    $0x20,%esi
  40069e:	48 8d 7d a0          	lea    -0x60(%rbp),%rdi
  4006a2:	e8 49 ff ff ff       	callq  4005f0 <posix_memalign@plt>
  4006a7:	ba 00 80 00 00       	mov    $0x8000,%edx
  4006ac:	be 20 00 00 00       	mov    $0x20,%esi
  4006b1:	48 8d 7d a8          	lea    -0x58(%rbp),%rdi
  4006b5:	e8 36 ff ff ff       	callq  4005f0 <posix_memalign@plt>
  4006ba:	ba 00 80 00 00       	mov    $0x8000,%edx
  4006bf:	be 20 00 00 00       	mov    $0x20,%esi
  4006c4:	48 8d 7d b0          	lea    -0x50(%rbp),%rdi
  4006c8:	e8 23 ff ff ff       	callq  4005f0 <posix_memalign@plt>
  4006cd:	ba 00 80 00 00       	mov    $0x8000,%edx
  4006d2:	be 20 00 00 00       	mov    $0x20,%esi
  4006d7:	48 8d 7d b8          	lea    -0x48(%rbp),%rdi
  4006db:	e8 10 ff ff ff       	callq  4005f0 <posix_memalign@plt>
  4006e0:	ba 00 80 00 00       	mov    $0x8000,%edx
  4006e5:	be 20 00 00 00       	mov    $0x20,%esi
  4006ea:	48 8d 7d c8          	lea    -0x38(%rbp),%rdi
  4006ee:	e8 fd fe ff ff       	callq  4005f0 <posix_memalign@plt>
  4006f3:	ba 00 80 00 00       	mov    $0x8000,%edx
  4006f8:	be 20 00 00 00       	mov    $0x20,%esi
  4006fd:	48 8d 7d c0          	lea    -0x40(%rbp),%rdi
  400701:	e8 ea fe ff ff       	callq  4005f0 <posix_memalign@plt>
  400706:	31 ff                	xor    %edi,%edi
  400708:	e8 d3 fe ff ff       	callq  4005e0 <time@plt>
  40070d:	89 c7                	mov    %eax,%edi
  40070f:	e8 bc fe ff ff       	callq  4005d0 <srand@plt>
  400714:	e8 e7 fe ff ff       	callq  400600 <rand@plt>
  400719:	c5 f8 57 c0          	vxorps %xmm0,%xmm0,%xmm0
  40071d:	c5 fa 2a c0          	vcvtsi2ss %eax,%xmm0,%xmm0
  400721:	c5 fa 59 05 fb 0e 00 	vmulss 0xefb(%rip),%xmm0,%xmm0        # 401624 <__dso_handle+0x5c>
  400728:	00 
  400729:	48 8b 85 78 ff ff ff 	mov    -0x88(%rbp),%rax
  400730:	c5 fa 59 05 f0 0e 00 	vmulss 0xef0(%rip),%xmm0,%xmm0        # 401628 <__dso_handle+0x60>
  400737:	00 
  400738:	c5 fa 5c 05 ec 0e 00 	vsubss 0xeec(%rip),%xmm0,%xmm0        # 40162c <__dso_handle+0x64>
  40073f:	00 
  400740:	c5 fa 11 04 18       	vmovss %xmm0,(%rax,%rbx,1)
  400745:	e8 b6 fe ff ff       	callq  400600 <rand@plt>
  40074a:	c5 f8 57 c0          	vxorps %xmm0,%xmm0,%xmm0
  40074e:	c5 fa 2a c0          	vcvtsi2ss %eax,%xmm0,%xmm0
  400752:	c5 fa 59 05 ca 0e 00 	vmulss 0xeca(%rip),%xmm0,%xmm0        # 401624 <__dso_handle+0x5c>
  400759:	00 
  40075a:	48 8b 45 80          	mov    -0x80(%rbp),%rax
  40075e:	c5 fa 59 05 c2 0e 00 	vmulss 0xec2(%rip),%xmm0,%xmm0        # 401628 <__dso_handle+0x60>
  400765:	00 
  400766:	c5 fa 5c 05 be 0e 00 	vsubss 0xebe(%rip),%xmm0,%xmm0        # 40162c <__dso_handle+0x64>
  40076d:	00 
  40076e:	c5 fa 11 04 18       	vmovss %xmm0,(%rax,%rbx,1)
  400773:	48 83 c3 04          	add    $0x4,%rbx
  400777:	48 81 fb 00 80 00 00 	cmp    $0x8000,%rbx
  40077e:	75 94                	jne    400714 <main+0x104>
  400780:	31 db                	xor    %ebx,%ebx
  400782:	e8 79 fe ff ff       	callq  400600 <rand@plt>
  400787:	c5 f8 57 c0          	vxorps %xmm0,%xmm0,%xmm0
  40078b:	c5 fa 2a c0          	vcvtsi2ss %eax,%xmm0,%xmm0
  40078f:	c5 fa 59 05 8d 0e 00 	vmulss 0xe8d(%rip),%xmm0,%xmm0        # 401624 <__dso_handle+0x5c>
  400796:	00 
  400797:	48 8b 45 88          	mov    -0x78(%rbp),%rax
  40079b:	c5 fa 59 05 85 0e 00 	vmulss 0xe85(%rip),%xmm0,%xmm0        # 401628 <__dso_handle+0x60>
  4007a2:	00 
  4007a3:	c5 fa 5c 05 81 0e 00 	vsubss 0xe81(%rip),%xmm0,%xmm0        # 40162c <__dso_handle+0x64>
  4007aa:	00 
  4007ab:	c5 fa 11 04 18       	vmovss %xmm0,(%rax,%rbx,1)
  4007b0:	e8 4b fe ff ff       	callq  400600 <rand@plt>
  4007b5:	c5 f8 57 c0          	vxorps %xmm0,%xmm0,%xmm0
  4007b9:	c5 fa 2a c0          	vcvtsi2ss %eax,%xmm0,%xmm0
  4007bd:	c5 fa 59 05 5f 0e 00 	vmulss 0xe5f(%rip),%xmm0,%xmm0        # 401624 <__dso_handle+0x5c>
  4007c4:	00 
  4007c5:	48 8b 45 90          	mov    -0x70(%rbp),%rax
  4007c9:	c5 fa 59 05 57 0e 00 	vmulss 0xe57(%rip),%xmm0,%xmm0        # 401628 <__dso_handle+0x60>
  4007d0:	00 
  4007d1:	c5 fa 5c 05 53 0e 00 	vsubss 0xe53(%rip),%xmm0,%xmm0        # 40162c <__dso_handle+0x64>
  4007d8:	00 
  4007d9:	c5 fa 11 04 18       	vmovss %xmm0,(%rax,%rbx,1)
  4007de:	48 83 c3 04          	add    $0x4,%rbx
  4007e2:	48 81 fb 00 80 00 00 	cmp    $0x8000,%rbx
  4007e9:	75 97                	jne    400782 <main+0x172>
  4007eb:	31 db                	xor    %ebx,%ebx
  4007ed:	e8 0e fe ff ff       	callq  400600 <rand@plt>
  4007f2:	c5 f8 57 c0          	vxorps %xmm0,%xmm0,%xmm0
  4007f6:	c5 fa 2a c0          	vcvtsi2ss %eax,%xmm0,%xmm0
  4007fa:	c5 fa 59 05 22 0e 00 	vmulss 0xe22(%rip),%xmm0,%xmm0        # 401624 <__dso_handle+0x5c>
  400801:	00 
  400802:	48 8b 45 98          	mov    -0x68(%rbp),%rax
  400806:	c5 fa 59 05 1a 0e 00 	vmulss 0xe1a(%rip),%xmm0,%xmm0        # 401628 <__dso_handle+0x60>
  40080d:	00 
  40080e:	c5 fa 5c 05 16 0e 00 	vsubss 0xe16(%rip),%xmm0,%xmm0        # 40162c <__dso_handle+0x64>
  400815:	00 
  400816:	c5 fa 11 04 18       	vmovss %xmm0,(%rax,%rbx,1)
  40081b:	e8 e0 fd ff ff       	callq  400600 <rand@plt>
  400820:	c5 f8 57 c0          	vxorps %xmm0,%xmm0,%xmm0
  400824:	c5 fa 2a c0          	vcvtsi2ss %eax,%xmm0,%xmm0
  400828:	c5 fa 59 05 f4 0d 00 	vmulss 0xdf4(%rip),%xmm0,%xmm0        # 401624 <__dso_handle+0x5c>
  40082f:	00 
  400830:	48 8b 45 a0          	mov    -0x60(%rbp),%rax
  400834:	c5 fa 59 05 ec 0d 00 	vmulss 0xdec(%rip),%xmm0,%xmm0        # 401628 <__dso_handle+0x60>
  40083b:	00 
  40083c:	c5 fa 5c 05 e8 0d 00 	vsubss 0xde8(%rip),%xmm0,%xmm0        # 40162c <__dso_handle+0x64>
  400843:	00 
  400844:	c5 fa 11 04 18       	vmovss %xmm0,(%rax,%rbx,1)
  400849:	48 83 c3 04          	add    $0x4,%rbx
  40084d:	48 81 fb 00 80 00 00 	cmp    $0x8000,%rbx
  400854:	75 97                	jne    4007ed <main+0x1dd>
  400856:	31 db                	xor    %ebx,%ebx
  400858:	e8 a3 fd ff ff       	callq  400600 <rand@plt>
  40085d:	c5 f8 57 c0          	vxorps %xmm0,%xmm0,%xmm0
  400861:	c5 fa 2a c0          	vcvtsi2ss %eax,%xmm0,%xmm0
  400865:	c5 fa 59 05 b7 0d 00 	vmulss 0xdb7(%rip),%xmm0,%xmm0        # 401624 <__dso_handle+0x5c>
  40086c:	00 
  40086d:	48 8b 45 a8          	mov    -0x58(%rbp),%rax
  400871:	c5 fa 59 05 af 0d 00 	vmulss 0xdaf(%rip),%xmm0,%xmm0        # 401628 <__dso_handle+0x60>
  400878:	00 
  400879:	c5 fa 5c 05 ab 0d 00 	vsubss 0xdab(%rip),%xmm0,%xmm0        # 40162c <__dso_handle+0x64>
  400880:	00 
  400881:	c5 fa 11 04 18       	vmovss %xmm0,(%rax,%rbx,1)
  400886:	e8 75 fd ff ff       	callq  400600 <rand@plt>
  40088b:	c5 f8 57 c0          	vxorps %xmm0,%xmm0,%xmm0
  40088f:	48 8b 4d b0          	mov    -0x50(%rbp),%rcx
  400893:	c5 fa 2a c0          	vcvtsi2ss %eax,%xmm0,%xmm0
  400897:	c5 fa 59 05 85 0d 00 	vmulss 0xd85(%rip),%xmm0,%xmm0        # 401624 <__dso_handle+0x5c>
  40089e:	00 
  40089f:	c5 fa 59 05 81 0d 00 	vmulss 0xd81(%rip),%xmm0,%xmm0        # 401628 <__dso_handle+0x60>
  4008a6:	00 
  4008a7:	c5 fa 5c 05 7d 0d 00 	vsubss 0xd7d(%rip),%xmm0,%xmm0        # 40162c <__dso_handle+0x64>
  4008ae:	00 
  4008af:	c5 fa 11 04 19       	vmovss %xmm0,(%rcx,%rbx,1)
  4008b4:	48 83 c3 04          	add    $0x4,%rbx
  4008b8:	48 81 fb 00 80 00 00 	cmp    $0x8000,%rbx
  4008bf:	75 97                	jne    400858 <main+0x248>
  4008c1:	48 8b 55 c0          	mov    -0x40(%rbp),%rdx
  4008c5:	48 8b 75 b8          	mov    -0x48(%rbp),%rsi
  4008c9:	48 8b 7d c8          	mov    -0x38(%rbp),%rdi
  4008cd:	4c 8d 4a 20          	lea    0x20(%rdx),%r9
  4008d1:	48 8d 46 20          	lea    0x20(%rsi),%rax
  4008d5:	4c 39 ce             	cmp    %r9,%rsi
  4008d8:	4c 8d 57 20          	lea    0x20(%rdi),%r10
  4008dc:	41 0f 93 c0          	setae  %r8b
  4008e0:	48 39 c2             	cmp    %rax,%rdx
  4008e3:	41 0f 93 c3          	setae  %r11b
  4008e7:	45 09 d8             	or     %r11d,%r8d
  4008ea:	48 39 c7             	cmp    %rax,%rdi
  4008ed:	0f 93 c0             	setae  %al
  4008f0:	4c 39 d6             	cmp    %r10,%rsi
  4008f3:	41 0f 93 c3          	setae  %r11b
  4008f7:	44 09 d8             	or     %r11d,%eax
  4008fa:	41 84 c0             	test   %al,%r8b
  4008fd:	0f 84 38 03 00 00    	je     400c3b <main+0x62b>
  400903:	4c 39 d2             	cmp    %r10,%rdx
  400906:	41 0f 93 c0          	setae  %r8b
  40090a:	4c 39 cf             	cmp    %r9,%rdi
  40090d:	0f 93 c0             	setae  %al
  400910:	41 08 c0             	or     %al,%r8b
  400913:	0f 84 22 03 00 00    	je     400c3b <main+0x62b>
  400919:	31 c0                	xor    %eax,%eax
  40091b:	c5 f8 57 c0          	vxorps %xmm0,%xmm0,%xmm0
  40091f:	c5 fc 11 04 06       	vmovups %ymm0,(%rsi,%rax,1)
  400924:	c5 fc 11 04 02       	vmovups %ymm0,(%rdx,%rax,1)
  400929:	c5 fc 11 04 07       	vmovups %ymm0,(%rdi,%rax,1)
  40092e:	48 83 c0 20          	add    $0x20,%rax
  400932:	48 3d 00 80 00 00    	cmp    $0x8000,%rax
  400938:	75 e5                	jne    40091f <main+0x30f>
  40093a:	c5 f8 77             	vzeroupper 
  40093d:	c7 85 60 ff ff ff a0 	movl   $0x186a0,-0xa0(%rbp)
  400944:	86 01 00 
  400947:	45 31 ff             	xor    %r15d,%r15d
  40094a:	45 31 ed             	xor    %r13d,%r13d
  40094d:	45 31 f6             	xor    %r14d,%r14d
  400950:	0f 31                	rdtsc  
  400952:	48 83 ec 08          	sub    $0x8,%rsp
  400956:	48 89 d3             	mov    %rdx,%rbx
  400959:	4c 8b 4d a0          	mov    -0x60(%rbp),%r9
  40095d:	4c 8b 45 98          	mov    -0x68(%rbp),%r8
  400961:	56                   	push   %rsi
  400962:	48 8b 55 88          	mov    -0x78(%rbp),%rdx
  400966:	89 c0                	mov    %eax,%eax
  400968:	48 c1 e3 20          	shl    $0x20,%rbx
  40096c:	48 8b 75 80          	mov    -0x80(%rbp),%rsi
  400970:	48 8b bd 78 ff ff ff 	mov    -0x88(%rbp),%rdi
  400977:	51                   	push   %rcx
  400978:	48 09 c3             	or     %rax,%rbx
  40097b:	ff 75 a8             	pushq  -0x58(%rbp)
  40097e:	48 8b 4d 90          	mov    -0x70(%rbp),%rcx
  400982:	e8 29 07 00 00       	callq  4010b0 <kernel>
  400987:	0f 31                	rdtsc  
  400989:	48 c1 e2 20          	shl    $0x20,%rdx
  40098d:	89 c0                	mov    %eax,%eax
  40098f:	48 09 c2             	or     %rax,%rdx
  400992:	48 29 da             	sub    %rbx,%rdx
  400995:	49 01 d6             	add    %rdx,%r14
  400998:	0f 31                	rdtsc  
  40099a:	48 89 d3             	mov    %rdx,%rbx
  40099d:	89 c0                	mov    %eax,%eax
  40099f:	48 83 c4 20          	add    $0x20,%rsp
  4009a3:	45 31 e4             	xor    %r12d,%r12d
  4009a6:	48 c1 e3 20          	shl    $0x20,%rbx
  4009aa:	48 09 c3             	or     %rax,%rbx
  4009ad:	0f 1f 00             	nopl   (%rax)
  4009b0:	4c 8b 45 c0          	mov    -0x40(%rbp),%r8
  4009b4:	48 83 ec 08          	sub    $0x8,%rsp
  4009b8:	48 8b 4d 90          	mov    -0x70(%rbp),%rcx
  4009bc:	48 8b 55 88          	mov    -0x78(%rbp),%rdx
  4009c0:	48 8b 75 80          	mov    -0x80(%rbp),%rsi
  4009c4:	4d 01 e0             	add    %r12,%r8
  4009c7:	48 8b bd 78 ff ff ff 	mov    -0x88(%rbp),%rdi
  4009ce:	4c 8b 4d a0          	mov    -0x60(%rbp),%r9
  4009d2:	4c 01 e1             	add    %r12,%rcx
  4009d5:	41 50                	push   %r8
  4009d7:	4c 8b 45 b0          	mov    -0x50(%rbp),%r8
  4009db:	4c 01 e2             	add    %r12,%rdx
  4009de:	4c 01 e6             	add    %r12,%rsi
  4009e1:	4c 01 e7             	add    %r12,%rdi
  4009e4:	4d 01 e1             	add    %r12,%r9
  4009e7:	4d 01 e0             	add    %r12,%r8
  4009ea:	41 50                	push   %r8
  4009ec:	4c 8b 45 a8          	mov    -0x58(%rbp),%r8
  4009f0:	4d 01 e0             	add    %r12,%r8
  4009f3:	41 50                	push   %r8
  4009f5:	4c 8b 45 98          	mov    -0x68(%rbp),%r8
  4009f9:	4d 01 e0             	add    %r12,%r8
  4009fc:	49 83 ec 80          	sub    $0xffffffffffffff80,%r12
  400a00:	e8 6b 08 00 00       	callq  401270 <kernel2>
  400a05:	48 83 c4 20          	add    $0x20,%rsp
  400a09:	49 81 fc 00 80 00 00 	cmp    $0x8000,%r12
  400a10:	75 9e                	jne    4009b0 <main+0x3a0>
  400a12:	0f 31                	rdtsc  
  400a14:	48 c1 e2 20          	shl    $0x20,%rdx
  400a18:	89 c0                	mov    %eax,%eax
  400a1a:	48 09 c2             	or     %rax,%rdx
  400a1d:	48 29 da             	sub    %rbx,%rdx
  400a20:	49 01 d5             	add    %rdx,%r13
  400a23:	0f 31                	rdtsc  
  400a25:	48 83 ec 08          	sub    $0x8,%rsp
  400a29:	ff 75 c8             	pushq  -0x38(%rbp)
  400a2c:	48 89 d3             	mov    %rdx,%rbx
  400a2f:	4c 8b 4d a0          	mov    -0x60(%rbp),%r9
  400a33:	4c 8b 45 98          	mov    -0x68(%rbp),%r8
  400a37:	ff 75 b0             	pushq  -0x50(%rbp)
  400a3a:	89 c0                	mov    %eax,%eax
  400a3c:	48 c1 e3 20          	shl    $0x20,%rbx
  400a40:	48 8b 4d 90          	mov    -0x70(%rbp),%rcx
  400a44:	ff 75 a8             	pushq  -0x58(%rbp)
  400a47:	48 09 c3             	or     %rax,%rbx
  400a4a:	48 8b 55 88          	mov    -0x78(%rbp),%rdx
  400a4e:	48 8b 75 80          	mov    -0x80(%rbp),%rsi
  400a52:	48 8b bd 78 ff ff ff 	mov    -0x88(%rbp),%rdi
  400a59:	e8 02 03 00 00       	callq  400d60 <check>
  400a5e:	0f 31                	rdtsc  
  400a60:	48 c1 e2 20          	shl    $0x20,%rdx
  400a64:	89 c0                	mov    %eax,%eax
  400a66:	48 83 c4 20          	add    $0x20,%rsp
  400a6a:	48 09 c2             	or     %rax,%rdx
  400a6d:	48 29 da             	sub    %rbx,%rdx
  400a70:	49 01 d7             	add    %rdx,%r15
  400a73:	ff 8d 60 ff ff ff    	decl   -0xa0(%rbp)
  400a79:	74 0d                	je     400a88 <main+0x478>
  400a7b:	48 8b 75 b8          	mov    -0x48(%rbp),%rsi
  400a7f:	48 8b 4d b0          	mov    -0x50(%rbp),%rcx
  400a83:	e9 c8 fe ff ff       	jmpq   400950 <main+0x340>
  400a88:	48 8b 4d b8          	mov    -0x48(%rbp),%rcx
  400a8c:	48 8b 55 c8          	mov    -0x38(%rbp),%rdx
  400a90:	31 c0                	xor    %eax,%eax
  400a92:	c5 ed 76 d2          	vpcmpeqd %ymm2,%ymm2,%ymm2
  400a96:	c5 fc 28 2d a2 0b 00 	vmovaps 0xba2(%rip),%ymm5        # 401640 <__dso_handle+0x78>
  400a9d:	00 
  400a9e:	c5 fd 28 25 ba 0b 00 	vmovapd 0xbba(%rip),%ymm4        # 401660 <__dso_handle+0x98>
  400aa5:	00 
  400aa6:	c5 fd 6f 1d d2 0b 00 	vmovdqa 0xbd2(%rip),%ymm3        # 401680 <__dso_handle+0xb8>
  400aad:	00 
  400aae:	c5 fc 10 3c 01       	vmovups (%rcx,%rax,1),%ymm7
  400ab3:	c5 c4 5c 04 02       	vsubps (%rdx,%rax,1),%ymm7,%ymm0
  400ab8:	48 83 c0 20          	add    $0x20,%rax
  400abc:	c5 fc 54 c5          	vandps %ymm5,%ymm0,%ymm0
  400ac0:	c5 fc 5a c8          	vcvtps2pd %xmm0,%ymm1
  400ac4:	c4 e3 7d 19 c0 01    	vextractf128 $0x1,%ymm0,%xmm0
  400aca:	c5 f5 c2 cc 01       	vcmpltpd %ymm4,%ymm1,%ymm1
  400acf:	c5 fc 5a c0          	vcvtps2pd %xmm0,%ymm0
  400ad3:	c5 fd c2 c4 01       	vcmpltpd %ymm4,%ymm0,%ymm0
  400ad8:	c5 e5 db c9          	vpand  %ymm1,%ymm3,%ymm1
  400adc:	c5 e5 db c0          	vpand  %ymm0,%ymm3,%ymm0
  400ae0:	c4 e3 75 46 f0 20    	vperm2i128 $0x20,%ymm0,%ymm1,%ymm6
  400ae6:	c4 e3 75 46 c0 31    	vperm2i128 $0x31,%ymm0,%ymm1,%ymm0
  400aec:	c5 fd 70 c0 d8       	vpshufd $0xd8,%ymm0,%ymm0
  400af1:	c5 fd 70 ce d8       	vpshufd $0xd8,%ymm6,%ymm1
  400af6:	c5 f5 6c c0          	vpunpcklqdq %ymm0,%ymm1,%ymm0
  400afa:	c5 ed db d0          	vpand  %ymm0,%ymm2,%ymm2
  400afe:	48 3d 00 80 00 00    	cmp    $0x8000,%rax
  400b04:	75 a8                	jne    400aae <main+0x49e>
  400b06:	4c 89 fa             	mov    %r15,%rdx
  400b09:	c4 e3 7d 39 d0 01    	vextracti128 $0x1,%ymm2,%xmm0
  400b0f:	bf d0 15 40 00       	mov    $0x4015d0,%edi
  400b14:	48 bb 43 78 b4 71 c4 	movabs $0xa7c5ac471b47843,%rbx
  400b1b:	5a 7c 0a 
  400b1e:	48 c1 ea 05          	shr    $0x5,%rdx
  400b22:	c5 f9 db c2          	vpand  %xmm2,%xmm0,%xmm0
  400b26:	48 89 d0             	mov    %rdx,%rax
  400b29:	c5 f1 73 d8 08       	vpsrldq $0x8,%xmm0,%xmm1
  400b2e:	48 f7 e3             	mul    %rbx
  400b31:	c5 f9 db c1          	vpand  %xmm1,%xmm0,%xmm0
  400b35:	31 c0                	xor    %eax,%eax
  400b37:	c5 d1 73 d8 04       	vpsrldq $0x4,%xmm0,%xmm5
  400b3c:	c5 f8 29 85 50 ff ff 	vmovaps %xmm0,-0xb0(%rbp)
  400b43:	ff 
  400b44:	c5 f8 29 ad 60 ff ff 	vmovaps %xmm5,-0xa0(%rbp)
  400b4b:	ff 
  400b4c:	48 89 d6             	mov    %rdx,%rsi
  400b4f:	48 c1 ee 07          	shr    $0x7,%rsi
  400b53:	c5 f8 77             	vzeroupper 
  400b56:	e8 65 fa ff ff       	callq  4005c0 <printf@plt>
  400b5b:	4c 89 f2             	mov    %r14,%rdx
  400b5e:	bf e9 15 40 00       	mov    $0x4015e9,%edi
  400b63:	48 c1 ea 05          	shr    $0x5,%rdx
  400b67:	48 89 d0             	mov    %rdx,%rax
  400b6a:	48 f7 e3             	mul    %rbx
  400b6d:	31 c0                	xor    %eax,%eax
  400b6f:	48 89 d6             	mov    %rdx,%rsi
  400b72:	48 c1 ee 07          	shr    $0x7,%rsi
  400b76:	e8 45 fa ff ff       	callq  4005c0 <printf@plt>
  400b7b:	4c 89 ea             	mov    %r13,%rdx
  400b7e:	bf 03 16 40 00       	mov    $0x401603,%edi
  400b83:	48 c1 ea 05          	shr    $0x5,%rdx
  400b87:	48 89 d0             	mov    %rdx,%rax
  400b8a:	48 f7 e3             	mul    %rbx
  400b8d:	31 c0                	xor    %eax,%eax
  400b8f:	48 89 d6             	mov    %rdx,%rsi
  400b92:	48 c1 ee 07          	shr    $0x7,%rsi
  400b96:	e8 25 fa ff ff       	callq  4005c0 <printf@plt>
  400b9b:	c5 f9 6f 85 50 ff ff 	vmovdqa -0xb0(%rbp),%xmm0
  400ba2:	ff 
  400ba3:	bf 1e 16 40 00       	mov    $0x40161e,%edi
  400ba8:	31 c0                	xor    %eax,%eax
  400baa:	c5 f9 db 85 60 ff ff 	vpand  -0xa0(%rbp),%xmm0,%xmm0
  400bb1:	ff 
  400bb2:	c5 f9 7e c6          	vmovd  %xmm0,%esi
  400bb6:	83 e6 01             	and    $0x1,%esi
  400bb9:	e8 02 fa ff ff       	callq  4005c0 <printf@plt>
  400bbe:	48 8b bd 78 ff ff ff 	mov    -0x88(%rbp),%rdi
  400bc5:	e8 e6 f9 ff ff       	callq  4005b0 <free@plt>
  400bca:	48 8b 7d 80          	mov    -0x80(%rbp),%rdi
  400bce:	e8 dd f9 ff ff       	callq  4005b0 <free@plt>
  400bd3:	48 8b 7d 88          	mov    -0x78(%rbp),%rdi
  400bd7:	e8 d4 f9 ff ff       	callq  4005b0 <free@plt>
  400bdc:	48 8b 7d 90          	mov    -0x70(%rbp),%rdi
  400be0:	e8 cb f9 ff ff       	callq  4005b0 <free@plt>
  400be5:	48 8b 7d 98          	mov    -0x68(%rbp),%rdi
  400be9:	e8 c2 f9 ff ff       	callq  4005b0 <free@plt>
  400bee:	48 8b 7d a0          	mov    -0x60(%rbp),%rdi
  400bf2:	e8 b9 f9 ff ff       	callq  4005b0 <free@plt>
  400bf7:	48 8b 7d a8          	mov    -0x58(%rbp),%rdi
  400bfb:	e8 b0 f9 ff ff       	callq  4005b0 <free@plt>
  400c00:	48 8b 7d b0          	mov    -0x50(%rbp),%rdi
  400c04:	e8 a7 f9 ff ff       	callq  4005b0 <free@plt>
  400c09:	48 8b 7d b8          	mov    -0x48(%rbp),%rdi
  400c0d:	e8 9e f9 ff ff       	callq  4005b0 <free@plt>
  400c12:	48 8b 7d c0          	mov    -0x40(%rbp),%rdi
  400c16:	e8 95 f9 ff ff       	callq  4005b0 <free@plt>
  400c1b:	48 8b 7d c8          	mov    -0x38(%rbp),%rdi
  400c1f:	e8 8c f9 ff ff       	callq  4005b0 <free@plt>
  400c24:	48 8d 65 d0          	lea    -0x30(%rbp),%rsp
  400c28:	31 c0                	xor    %eax,%eax
  400c2a:	5b                   	pop    %rbx
  400c2b:	41 5a                	pop    %r10
  400c2d:	41 5c                	pop    %r12
  400c2f:	41 5d                	pop    %r13
  400c31:	41 5e                	pop    %r14
  400c33:	41 5f                	pop    %r15
  400c35:	5d                   	pop    %rbp
  400c36:	49 8d 62 f8          	lea    -0x8(%r10),%rsp
  400c3a:	c3                   	retq   
  400c3b:	31 c0                	xor    %eax,%eax
  400c3d:	c7 04 06 00 00 00 00 	movl   $0x0,(%rsi,%rax,1)
  400c44:	c7 04 02 00 00 00 00 	movl   $0x0,(%rdx,%rax,1)
  400c4b:	c7 04 07 00 00 00 00 	movl   $0x0,(%rdi,%rax,1)
  400c52:	48 83 c0 04          	add    $0x4,%rax
  400c56:	48 3d 00 80 00 00    	cmp    $0x8000,%rax
  400c5c:	75 df                	jne    400c3d <main+0x62d>
  400c5e:	e9 da fc ff ff       	jmpq   40093d <main+0x32d>

0000000000400c63 <.annobin_elf_init.c.hot>:
  400c63:	66 2e 0f 1f 84 00 00 	nopw   %cs:0x0(%rax,%rax,1)
  400c6a:	00 00 00 
  400c6d:	0f 1f 00             	nopl   (%rax)

0000000000400c70 <_start>:
  400c70:	f3 0f 1e fa          	endbr64 
  400c74:	31 ed                	xor    %ebp,%ebp
  400c76:	49 89 d1             	mov    %rdx,%r9
  400c79:	5e                   	pop    %rsi
  400c7a:	48 89 e2             	mov    %rsp,%rdx
  400c7d:	48 83 e4 f0          	and    $0xfffffffffffffff0,%rsp
  400c81:	50                   	push   %rax
  400c82:	54                   	push   %rsp
  400c83:	49 c7 c0 a0 15 40 00 	mov    $0x4015a0,%r8
  400c8a:	48 c7 c1 30 15 40 00 	mov    $0x401530,%rcx
  400c91:	48 c7 c7 10 06 40 00 	mov    $0x400610,%rdi
  400c98:	ff 15 4a 13 20 00    	callq  *0x20134a(%rip)        # 601fe8 <__libc_start_main@GLIBC_2.2.5>
  400c9e:	f4                   	hlt    

0000000000400c9f <.annobin_init.c>:
  400c9f:	90                   	nop

0000000000400ca0 <_dl_relocate_static_pie>:
  400ca0:	f3 0f 1e fa          	endbr64 
  400ca4:	c3                   	retq   

0000000000400ca5 <.annobin__dl_relocate_static_pie.end>:
  400ca5:	66 2e 0f 1f 84 00 00 	nopw   %cs:0x0(%rax,%rax,1)
  400cac:	00 00 00 
  400caf:	90                   	nop

0000000000400cb0 <deregister_tm_clones>:
  400cb0:	48 8d 3d 99 13 20 00 	lea    0x201399(%rip),%rdi        # 602050 <__TMC_END__>
  400cb7:	48 8d 05 92 13 20 00 	lea    0x201392(%rip),%rax        # 602050 <__TMC_END__>
  400cbe:	48 39 f8             	cmp    %rdi,%rax
  400cc1:	74 15                	je     400cd8 <deregister_tm_clones+0x28>
  400cc3:	48 8b 05 16 13 20 00 	mov    0x201316(%rip),%rax        # 601fe0 <_ITM_deregisterTMCloneTable@Base>
  400cca:	48 85 c0             	test   %rax,%rax
  400ccd:	74 09                	je     400cd8 <deregister_tm_clones+0x28>
  400ccf:	ff e0                	jmpq   *%rax
  400cd1:	0f 1f 80 00 00 00 00 	nopl   0x0(%rax)
  400cd8:	c3                   	retq   
  400cd9:	0f 1f 80 00 00 00 00 	nopl   0x0(%rax)

0000000000400ce0 <register_tm_clones>:
  400ce0:	48 8d 3d 69 13 20 00 	lea    0x201369(%rip),%rdi        # 602050 <__TMC_END__>
  400ce7:	48 8d 35 62 13 20 00 	lea    0x201362(%rip),%rsi        # 602050 <__TMC_END__>
  400cee:	48 29 fe             	sub    %rdi,%rsi
  400cf1:	48 c1 fe 03          	sar    $0x3,%rsi
  400cf5:	48 89 f0             	mov    %rsi,%rax
  400cf8:	48 c1 e8 3f          	shr    $0x3f,%rax
  400cfc:	48 01 c6             	add    %rax,%rsi
  400cff:	48 d1 fe             	sar    %rsi
  400d02:	74 14                	je     400d18 <register_tm_clones+0x38>
  400d04:	48 8b 05 ed 12 20 00 	mov    0x2012ed(%rip),%rax        # 601ff8 <_ITM_registerTMCloneTable@Base>
  400d0b:	48 85 c0             	test   %rax,%rax
  400d0e:	74 08                	je     400d18 <register_tm_clones+0x38>
  400d10:	ff e0                	jmpq   *%rax
  400d12:	66 0f 1f 44 00 00    	nopw   0x0(%rax,%rax,1)
  400d18:	c3                   	retq   
  400d19:	0f 1f 80 00 00 00 00 	nopl   0x0(%rax)

0000000000400d20 <__do_global_dtors_aux>:
  400d20:	f3 0f 1e fa          	endbr64 
  400d24:	80 3d 21 13 20 00 00 	cmpb   $0x0,0x201321(%rip)        # 60204c <_edata>
  400d2b:	75 13                	jne    400d40 <__do_global_dtors_aux+0x20>
  400d2d:	55                   	push   %rbp
  400d2e:	48 89 e5             	mov    %rsp,%rbp
  400d31:	e8 7a ff ff ff       	callq  400cb0 <deregister_tm_clones>
  400d36:	c6 05 0f 13 20 00 01 	movb   $0x1,0x20130f(%rip)        # 60204c <_edata>
  400d3d:	5d                   	pop    %rbp
  400d3e:	c3                   	retq   
  400d3f:	90                   	nop
  400d40:	c3                   	retq   
  400d41:	66 66 2e 0f 1f 84 00 	data16 nopw %cs:0x0(%rax,%rax,1)
  400d48:	00 00 00 00 
  400d4c:	0f 1f 40 00          	nopl   0x0(%rax)

0000000000400d50 <frame_dummy>:
  400d50:	f3 0f 1e fa          	endbr64 
  400d54:	eb 8a                	jmp    400ce0 <register_tm_clones>
  400d56:	66 2e 0f 1f 84 00 00 	nopw   %cs:0x0(%rax,%rax,1)
  400d5d:	00 00 00 

0000000000400d60 <check>:
  400d60:	55                   	push   %rbp
  400d61:	31 c0                	xor    %eax,%eax
  400d63:	48 89 e5             	mov    %rsp,%rbp
  400d66:	53                   	push   %rbx
  400d67:	4c 8b 5d 18          	mov    0x18(%rbp),%r11
  400d6b:	48 8b 5d 10          	mov    0x10(%rbp),%rbx
  400d6f:	4c 8b 55 20          	mov    0x20(%rbp),%r10
  400d73:	0f 1f 44 00 00       	nopl   0x0(%rax,%rax,1)
  400d78:	c5 fc 10 34 07       	vmovups (%rdi,%rax,1),%ymm6
  400d7d:	c5 fc 10 3c 06       	vmovups (%rsi,%rax,1),%ymm7
  400d82:	c5 cc 5c 2c 03       	vsubps (%rbx,%rax,1),%ymm6,%ymm5
  400d87:	c4 c1 44 5c 1c 03    	vsubps (%r11,%rax,1),%ymm7,%ymm3
  400d8d:	c5 fc 10 24 02       	vmovups (%rdx,%rax,1),%ymm4
  400d92:	c5 fc 10 34 01       	vmovups (%rcx,%rax,1),%ymm6
  400d97:	c5 dc 5c 3c 03       	vsubps (%rbx,%rax,1),%ymm4,%ymm7
  400d9c:	c4 c1 4c 5c 34 03    	vsubps (%r11,%rax,1),%ymm6,%ymm6
  400da2:	c4 c1 7c 10 14 00    	vmovups (%r8,%rax,1),%ymm2
  400da8:	c5 ec 5c 24 03       	vsubps (%rbx,%rax,1),%ymm2,%ymm4
  400dad:	c4 c1 7c 10 14 01    	vmovups (%r9,%rax,1),%ymm2
  400db3:	c4 c1 6c 5c 04 03    	vsubps (%r11,%rax,1),%ymm2,%ymm0
  400db9:	c5 c4 59 cf          	vmulps %ymm7,%ymm7,%ymm1
  400dbd:	c5 4c 59 c6          	vmulps %ymm6,%ymm6,%ymm8
  400dc1:	c5 dc 59 d4          	vmulps %ymm4,%ymm4,%ymm2
  400dc5:	c5 3c 58 c1          	vaddps %ymm1,%ymm8,%ymm8
  400dc9:	c5 fc 59 c8          	vmulps %ymm0,%ymm0,%ymm1
  400dcd:	c5 f4 58 ca          	vaddps %ymm2,%ymm1,%ymm1
  400dd1:	c5 bc 59 d4          	vmulps %ymm4,%ymm8,%ymm2
  400dd5:	c5 3c 59 c0          	vmulps %ymm0,%ymm8,%ymm8
  400dd9:	c5 dc 59 e6          	vmulps %ymm6,%ymm4,%ymm4
  400ddd:	c5 74 59 cf          	vmulps %ymm7,%ymm1,%ymm9
  400de1:	c5 f4 59 ce          	vmulps %ymm6,%ymm1,%ymm1
  400de5:	c5 fc 59 c7          	vmulps %ymm7,%ymm0,%ymm0
  400de9:	c4 c1 6c 5c d1       	vsubps %ymm9,%ymm2,%ymm2
  400dee:	c4 c1 74 5c c8       	vsubps %ymm8,%ymm1,%ymm1
  400df3:	c5 fc 5c c4          	vsubps %ymm4,%ymm0,%ymm0
  400df7:	c5 ec 59 d3          	vmulps %ymm3,%ymm2,%ymm2
  400dfb:	c5 f4 59 cd          	vmulps %ymm5,%ymm1,%ymm1
  400dff:	c5 e4 59 db          	vmulps %ymm3,%ymm3,%ymm3
  400e03:	c5 d4 59 ed          	vmulps %ymm5,%ymm5,%ymm5
  400e07:	c5 ec 58 c9          	vaddps %ymm1,%ymm2,%ymm1
  400e0b:	c5 e4 58 dd          	vaddps %ymm5,%ymm3,%ymm3
  400e0f:	c5 fc 59 c3          	vmulps %ymm3,%ymm0,%ymm0
  400e13:	c5 f4 58 c0          	vaddps %ymm0,%ymm1,%ymm0
  400e17:	c4 c1 7c 11 04 02    	vmovups %ymm0,(%r10,%rax,1)
  400e1d:	48 83 c0 20          	add    $0x20,%rax
  400e21:	48 3d 00 80 00 00    	cmp    $0x8000,%rax
  400e27:	0f 85 4b ff ff ff    	jne    400d78 <check+0x18>
  400e2d:	c5 f8 77             	vzeroupper 
  400e30:	5b                   	pop    %rbx
  400e31:	5d                   	pop    %rbp
  400e32:	c3                   	retq   
  400e33:	66 66 2e 0f 1f 84 00 	data16 nopw %cs:0x0(%rax,%rax,1)
  400e3a:	00 00 00 00 
  400e3e:	66 90                	xchg   %ax,%ax

0000000000400e40 <baseline>:
  400e40:	55                   	push   %rbp
  400e41:	49 8d 41 20          	lea    0x20(%r9),%rax
  400e45:	48 89 e5             	mov    %rsp,%rbp
  400e48:	41 56                	push   %r14
  400e4a:	4c 8b 55 20          	mov    0x20(%rbp),%r10
  400e4e:	4c 8b 5d 10          	mov    0x10(%rbp),%r11
  400e52:	41 55                	push   %r13
  400e54:	41 54                	push   %r12
  400e56:	49 39 c2             	cmp    %rax,%r10
  400e59:	4d 8d 62 20          	lea    0x20(%r10),%r12
  400e5d:	53                   	push   %rbx
  400e5e:	48 8b 5d 18          	mov    0x18(%rbp),%rbx
  400e62:	41 0f 93 c6          	setae  %r14b
  400e66:	4d 39 e1             	cmp    %r12,%r9
  400e69:	0f 93 c0             	setae  %al
  400e6c:	41 09 c6             	or     %eax,%r14d
  400e6f:	49 8d 40 20          	lea    0x20(%r8),%rax
  400e73:	49 39 c2             	cmp    %rax,%r10
  400e76:	41 0f 93 c5          	setae  %r13b
  400e7a:	4d 39 e0             	cmp    %r12,%r8
  400e7d:	0f 93 c0             	setae  %al
  400e80:	44 09 e8             	or     %r13d,%eax
  400e83:	4c 8d 69 20          	lea    0x20(%rcx),%r13
  400e87:	44 21 f0             	and    %r14d,%eax
  400e8a:	4d 39 ea             	cmp    %r13,%r10
  400e8d:	41 0f 93 c5          	setae  %r13b
  400e91:	4c 39 e1             	cmp    %r12,%rcx
  400e94:	41 0f 93 c6          	setae  %r14b
  400e98:	45 09 f5             	or     %r14d,%r13d
  400e9b:	44 21 e8             	and    %r13d,%eax
  400e9e:	4c 8d 6a 20          	lea    0x20(%rdx),%r13
  400ea2:	4d 39 ea             	cmp    %r13,%r10
  400ea5:	41 0f 93 c5          	setae  %r13b
  400ea9:	4c 39 e2             	cmp    %r12,%rdx
  400eac:	41 0f 93 c6          	setae  %r14b
  400eb0:	45 09 f5             	or     %r14d,%r13d
  400eb3:	44 21 e8             	and    %r13d,%eax
  400eb6:	4c 8d 6b 20          	lea    0x20(%rbx),%r13
  400eba:	4d 39 ea             	cmp    %r13,%r10
  400ebd:	41 0f 93 c5          	setae  %r13b
  400ec1:	4c 39 e3             	cmp    %r12,%rbx
  400ec4:	41 0f 93 c6          	setae  %r14b
  400ec8:	45 09 f5             	or     %r14d,%r13d
  400ecb:	44 21 e8             	and    %r13d,%eax
  400ece:	4c 8d 6e 20          	lea    0x20(%rsi),%r13
  400ed2:	4d 39 ea             	cmp    %r13,%r10
  400ed5:	41 0f 93 c5          	setae  %r13b
  400ed9:	4c 39 e6             	cmp    %r12,%rsi
  400edc:	41 0f 93 c6          	setae  %r14b
  400ee0:	45 09 f5             	or     %r14d,%r13d
  400ee3:	44 21 e8             	and    %r13d,%eax
  400ee6:	4d 8d 6b 20          	lea    0x20(%r11),%r13
  400eea:	4d 39 ea             	cmp    %r13,%r10
  400eed:	41 0f 93 c5          	setae  %r13b
  400ef1:	4d 39 e3             	cmp    %r12,%r11
  400ef4:	41 0f 93 c6          	setae  %r14b
  400ef8:	45 09 f5             	or     %r14d,%r13d
  400efb:	44 84 e8             	test   %r13b,%al
  400efe:	0f 84 df 00 00 00    	je     400fe3 <baseline+0x1a3>
  400f04:	48 8d 47 20          	lea    0x20(%rdi),%rax
  400f08:	49 39 c2             	cmp    %rax,%r10
  400f0b:	41 0f 93 c5          	setae  %r13b
  400f0f:	4c 39 e7             	cmp    %r12,%rdi
  400f12:	0f 93 c0             	setae  %al
  400f15:	41 08 c5             	or     %al,%r13b
  400f18:	0f 84 c5 00 00 00    	je     400fe3 <baseline+0x1a3>
  400f1e:	31 c0                	xor    %eax,%eax
  400f20:	c5 fc 10 34 07       	vmovups (%rdi,%rax,1),%ymm6
  400f25:	c5 fc 10 2c 02       	vmovups (%rdx,%rax,1),%ymm5
  400f2a:	c4 c1 4c 5c 04 03    	vsubps (%r11,%rax,1),%ymm6,%ymm0
  400f30:	c4 c1 54 5c 1c 03    	vsubps (%r11,%rax,1),%ymm5,%ymm3
  400f36:	c5 fc 10 34 06       	vmovups (%rsi,%rax,1),%ymm6
  400f3b:	c5 cc 5c 3c 03       	vsubps (%rbx,%rax,1),%ymm6,%ymm7
  400f40:	c5 fc 10 34 01       	vmovups (%rcx,%rax,1),%ymm6
  400f45:	c5 cc 5c 24 03       	vsubps (%rbx,%rax,1),%ymm6,%ymm4
  400f4a:	c5 e4 59 cb          	vmulps %ymm3,%ymm3,%ymm1
  400f4e:	c4 c1 7c 10 2c 00    	vmovups (%r8,%rax,1),%ymm5
  400f54:	c4 c1 7c 10 34 01    	vmovups (%r9,%rax,1),%ymm6
  400f5a:	c4 c1 54 5c 2c 03    	vsubps (%r11,%rax,1),%ymm5,%ymm5
  400f60:	c5 cc 5c 34 03       	vsubps (%rbx,%rax,1),%ymm6,%ymm6
  400f65:	c5 dc 59 d4          	vmulps %ymm4,%ymm4,%ymm2
  400f69:	c5 54 59 c5          	vmulps %ymm5,%ymm5,%ymm8
  400f6d:	c5 f4 58 ca          	vaddps %ymm2,%ymm1,%ymm1
  400f71:	c5 cc 59 d6          	vmulps %ymm6,%ymm6,%ymm2
  400f75:	c5 4c 59 c9          	vmulps %ymm1,%ymm6,%ymm9
  400f79:	c5 d4 59 c9          	vmulps %ymm1,%ymm5,%ymm1
  400f7d:	c5 3c 58 c2          	vaddps %ymm2,%ymm8,%ymm8
  400f81:	c4 c1 5c 59 d0       	vmulps %ymm8,%ymm4,%ymm2
  400f86:	c4 41 64 59 c0       	vmulps %ymm8,%ymm3,%ymm8
  400f8b:	c5 dc 59 e5          	vmulps %ymm5,%ymm4,%ymm4
  400f8f:	c5 e4 59 de          	vmulps %ymm6,%ymm3,%ymm3
  400f93:	c4 c1 6c 5c d1       	vsubps %ymm9,%ymm2,%ymm2
  400f98:	c4 c1 74 5c c8       	vsubps %ymm8,%ymm1,%ymm1
  400f9d:	c5 ec 59 d0          	vmulps %ymm0,%ymm2,%ymm2
  400fa1:	c5 e4 5c dc          	vsubps %ymm4,%ymm3,%ymm3
  400fa5:	c5 f4 59 cf          	vmulps %ymm7,%ymm1,%ymm1
  400fa9:	c5 fc 59 c0          	vmulps %ymm0,%ymm0,%ymm0
  400fad:	c5 c4 59 ff          	vmulps %ymm7,%ymm7,%ymm7
  400fb1:	c5 ec 58 c9          	vaddps %ymm1,%ymm2,%ymm1
  400fb5:	c5 fc 58 c7          	vaddps %ymm7,%ymm0,%ymm0
  400fb9:	c5 fc 59 c3          	vmulps %ymm3,%ymm0,%ymm0
  400fbd:	c5 f4 58 c8          	vaddps %ymm0,%ymm1,%ymm1
  400fc1:	c4 c1 7c 11 0c 02    	vmovups %ymm1,(%r10,%rax,1)
  400fc7:	48 83 c0 20          	add    $0x20,%rax
  400fcb:	48 3d 00 80 00 00    	cmp    $0x8000,%rax
  400fd1:	0f 85 49 ff ff ff    	jne    400f20 <baseline+0xe0>
  400fd7:	c5 f8 77             	vzeroupper 
  400fda:	5b                   	pop    %rbx
  400fdb:	41 5c                	pop    %r12
  400fdd:	41 5d                	pop    %r13
  400fdf:	41 5e                	pop    %r14
  400fe1:	5d                   	pop    %rbp
  400fe2:	c3                   	retq   
  400fe3:	31 c0                	xor    %eax,%eax
  400fe5:	0f 1f 00             	nopl   (%rax)
  400fe8:	c4 c1 7a 10 14 03    	vmovss (%r11,%rax,1),%xmm2
  400fee:	c5 fa 10 0c 03       	vmovss (%rbx,%rax,1),%xmm1
  400ff3:	c5 fa 10 1c 02       	vmovss (%rdx,%rax,1),%xmm3
  400ff8:	c5 fa 10 2c 01       	vmovss (%rcx,%rax,1),%xmm5
  400ffd:	c5 fa 10 04 06       	vmovss (%rsi,%rax,1),%xmm0
  401002:	c4 c1 7a 10 24 00    	vmovss (%r8,%rax,1),%xmm4
  401008:	c5 e2 5c f2          	vsubss %xmm2,%xmm3,%xmm6
  40100c:	c5 d2 5c e9          	vsubss %xmm1,%xmm5,%xmm5
  401010:	c4 c1 7a 10 1c 01    	vmovss (%r9,%rax,1),%xmm3
  401016:	c5 fa 10 3c 07       	vmovss (%rdi,%rax,1),%xmm7
  40101b:	c5 fa 5c c1          	vsubss %xmm1,%xmm0,%xmm0
  40101f:	c5 da 5c e2          	vsubss %xmm2,%xmm4,%xmm4
  401023:	c5 e2 5c d9          	vsubss %xmm1,%xmm3,%xmm3
  401027:	c5 c2 5c fa          	vsubss %xmm2,%xmm7,%xmm7
  40102b:	c5 ca 59 ce          	vmulss %xmm6,%xmm6,%xmm1
  40102f:	c5 52 59 c5          	vmulss %xmm5,%xmm5,%xmm8
  401033:	c5 da 59 d4          	vmulss %xmm4,%xmm4,%xmm2
  401037:	c5 3a 58 c1          	vaddss %xmm1,%xmm8,%xmm8
  40103b:	c5 e2 59 cb          	vmulss %xmm3,%xmm3,%xmm1
  40103f:	c5 f2 58 ca          	vaddss %xmm2,%xmm1,%xmm1
  401043:	c5 ba 59 d4          	vmulss %xmm4,%xmm8,%xmm2
  401047:	c5 3a 59 c3          	vmulss %xmm3,%xmm8,%xmm8
  40104b:	c5 da 59 e5          	vmulss %xmm5,%xmm4,%xmm4
  40104f:	c5 4a 59 c9          	vmulss %xmm1,%xmm6,%xmm9
  401053:	c5 d2 59 c9          	vmulss %xmm1,%xmm5,%xmm1
  401057:	c5 e2 59 de          	vmulss %xmm6,%xmm3,%xmm3
  40105b:	c4 c1 6a 5c d1       	vsubss %xmm9,%xmm2,%xmm2
  401060:	c4 c1 72 5c c8       	vsubss %xmm8,%xmm1,%xmm1
  401065:	c5 e2 5c dc          	vsubss %xmm4,%xmm3,%xmm3
  401069:	c5 ea 59 d0          	vmulss %xmm0,%xmm2,%xmm2
  40106d:	c5 f2 59 cf          	vmulss %xmm7,%xmm1,%xmm1
  401071:	c5 fa 59 c0          	vmulss %xmm0,%xmm0,%xmm0
  401075:	c5 c2 59 ff          	vmulss %xmm7,%xmm7,%xmm7
  401079:	c5 ea 58 c9          	vaddss %xmm1,%xmm2,%xmm1
  40107d:	c5 fa 58 c7          	vaddss %xmm7,%xmm0,%xmm0
  401081:	c5 fa 59 c3          	vmulss %xmm3,%xmm0,%xmm0
  401085:	c5 f2 58 c8          	vaddss %xmm0,%xmm1,%xmm1
  401089:	c4 c1 7a 11 0c 02    	vmovss %xmm1,(%r10,%rax,1)
  40108f:	48 83 c0 04          	add    $0x4,%rax
  401093:	48 3d 00 80 00 00    	cmp    $0x8000,%rax
  401099:	0f 85 49 ff ff ff    	jne    400fe8 <baseline+0x1a8>
  40109f:	5b                   	pop    %rbx
  4010a0:	41 5c                	pop    %r12
  4010a2:	41 5d                	pop    %r13
  4010a4:	41 5e                	pop    %r14
  4010a6:	5d                   	pop    %rbp
  4010a7:	c3                   	retq   
  4010a8:	0f 1f 84 00 00 00 00 	nopl   0x0(%rax,%rax,1)
  4010af:	00 

00000000004010b0 <kernel>:
  4010b0:	55                   	push   %rbp
  4010b1:	31 c0                	xor    %eax,%eax
  4010b3:	48 89 e5             	mov    %rsp,%rbp
  4010b6:	53                   	push   %rbx
  4010b7:	48 83 e4 e0          	and    $0xffffffffffffffe0,%rsp
  4010bb:	48 8b 5d 10          	mov    0x10(%rbp),%rbx
  4010bf:	4c 8b 5d 18          	mov    0x18(%rbp),%r11
  4010c3:	4c 8b 55 20          	mov    0x20(%rbp),%r10
  4010c7:	66 0f 1f 84 00 00 00 	nopw   0x0(%rax,%rax,1)
  4010ce:	00 00 
  4010d0:	c5 fc 28 3c 07       	vmovaps (%rdi,%rax,1),%ymm7
  4010d5:	c5 fc 28 4c 07 20    	vmovaps 0x20(%rdi,%rax,1),%ymm1
  4010db:	c5 c4 5c 24 03       	vsubps (%rbx,%rax,1),%ymm7,%ymm4
  4010e0:	c5 f4 5c 5c 03 20    	vsubps 0x20(%rbx,%rax,1),%ymm1,%ymm3
  4010e6:	c5 fc 28 3c 06       	vmovaps (%rsi,%rax,1),%ymm7
  4010eb:	c5 fc 28 4c 06 20    	vmovaps 0x20(%rsi,%rax,1),%ymm1
  4010f1:	c4 41 44 5c 04 03    	vsubps (%r11,%rax,1),%ymm7,%ymm8
  4010f7:	c5 fc 28 74 02 20    	vmovaps 0x20(%rdx,%rax,1),%ymm6
  4010fd:	c4 c1 74 5c 7c 03 20 	vsubps 0x20(%r11,%rax,1),%ymm1,%ymm7
  401104:	c5 fc 28 2c 01       	vmovaps (%rcx,%rax,1),%ymm5
  401109:	c5 fc 28 0c 02       	vmovaps (%rdx,%rax,1),%ymm1
  40110e:	c5 f4 5c 14 03       	vsubps (%rbx,%rax,1),%ymm1,%ymm2
  401113:	c5 cc 5c 4c 03 20    	vsubps 0x20(%rbx,%rax,1),%ymm6,%ymm1
  401119:	c4 c1 54 5c 34 03    	vsubps (%r11,%rax,1),%ymm5,%ymm6
  40111f:	c4 c1 7c 28 04 00    	vmovaps (%r8,%rax,1),%ymm0
  401125:	c5 7c 5c 1c 03       	vsubps (%rbx,%rax,1),%ymm0,%ymm11
  40112a:	c5 6c 59 ea          	vmulps %ymm2,%ymm2,%ymm13
  40112e:	c4 c1 7c 28 44 00 20 	vmovaps 0x20(%r8,%rax,1),%ymm0
  401135:	c5 7c 5c 4c 03 20    	vsubps 0x20(%rbx,%rax,1),%ymm0,%ymm9
  40113b:	c4 c1 7c 28 04 01    	vmovaps (%r9,%rax,1),%ymm0
  401141:	c4 41 7c 5c 24 03    	vsubps (%r11,%rax,1),%ymm0,%ymm12
  401147:	c5 74 59 f1          	vmulps %ymm1,%ymm1,%ymm14
  40114b:	c4 c1 7c 28 44 01 20 	vmovaps 0x20(%r9,%rax,1),%ymm0
  401152:	c4 41 7c 5c 54 03 20 	vsubps 0x20(%r11,%rax,1),%ymm0,%ymm10
  401159:	c5 cc 59 c6          	vmulps %ymm6,%ymm6,%ymm0
  40115d:	c5 fc 28 6c 01 20    	vmovaps 0x20(%rcx,%rax,1),%ymm5
  401163:	c4 c1 54 5c 6c 03 20 	vsubps 0x20(%r11,%rax,1),%ymm5,%ymm5
  40116a:	c5 94 58 c0          	vaddps %ymm0,%ymm13,%ymm0
  40116e:	c5 54 59 ed          	vmulps %ymm5,%ymm5,%ymm13
  401172:	c5 fc 29 44 24 e0    	vmovaps %ymm0,-0x20(%rsp)
  401178:	c4 41 0c 58 fd       	vaddps %ymm13,%ymm14,%ymm15
  40117d:	c4 41 24 59 f3       	vmulps %ymm11,%ymm11,%ymm14
  401182:	c4 41 1c 59 ec       	vmulps %ymm12,%ymm12,%ymm13
  401187:	c5 7c 29 7c 24 c0    	vmovaps %ymm15,-0x40(%rsp)
  40118d:	c4 41 34 59 f9       	vmulps %ymm9,%ymm9,%ymm15
  401192:	c4 41 0c 58 ed       	vaddps %ymm13,%ymm14,%ymm13
  401197:	c4 41 2c 59 f2       	vmulps %ymm10,%ymm10,%ymm14
  40119c:	c4 c1 4c 59 c5       	vmulps %ymm13,%ymm6,%ymm0
  4011a1:	c4 41 6c 59 ed       	vmulps %ymm13,%ymm2,%ymm13
  4011a6:	c4 41 04 58 fe       	vaddps %ymm14,%ymm15,%ymm15
  4011ab:	c5 1c 59 74 24 e0    	vmulps -0x20(%rsp),%ymm12,%ymm14
  4011b1:	c4 c1 6c 59 d4       	vmulps %ymm12,%ymm2,%ymm2
  4011b6:	c4 c1 4c 59 f3       	vmulps %ymm11,%ymm6,%ymm6
  4011bb:	c4 41 7c 5c f6       	vsubps %ymm14,%ymm0,%ymm14
  4011c0:	c5 a4 59 44 24 e0    	vmulps -0x20(%rsp),%ymm11,%ymm0
  4011c6:	c5 ec 5c f6          	vsubps %ymm6,%ymm2,%ymm6
  4011ca:	c5 0c 59 f4          	vmulps %ymm4,%ymm14,%ymm14
  4011ce:	c5 dc 59 e4          	vmulps %ymm4,%ymm4,%ymm4
  4011d2:	c4 c1 7c 5c c5       	vsubps %ymm13,%ymm0,%ymm0
  4011d7:	c4 c1 7c 59 c0       	vmulps %ymm8,%ymm0,%ymm0
  4011dc:	c4 41 3c 59 c0       	vmulps %ymm8,%ymm8,%ymm8
  4011e1:	c5 0c 58 f0          	vaddps %ymm0,%ymm14,%ymm14
  4011e5:	c4 c1 54 59 c7       	vmulps %ymm15,%ymm5,%ymm0
  4011ea:	c4 c1 5c 58 e0       	vaddps %ymm8,%ymm4,%ymm4
  4011ef:	c4 c1 54 59 e9       	vmulps %ymm9,%ymm5,%ymm5
  4011f4:	c5 cc 59 f4          	vmulps %ymm4,%ymm6,%ymm6
  4011f8:	c5 fc 28 64 24 c0    	vmovaps -0x40(%rsp),%ymm4
  4011fe:	c5 ac 59 d4          	vmulps %ymm4,%ymm10,%ymm2
  401202:	c5 0c 58 f6          	vaddps %ymm6,%ymm14,%ymm14
  401206:	c5 fc 5c c2          	vsubps %ymm2,%ymm0,%ymm0
  40120a:	c5 b4 59 d4          	vmulps %ymm4,%ymm9,%ymm2
  40120e:	c4 c1 74 59 e7       	vmulps %ymm15,%ymm1,%ymm4
  401213:	c4 41 7c 29 34 02    	vmovaps %ymm14,(%r10,%rax,1)
  401219:	c4 c1 74 59 ca       	vmulps %ymm10,%ymm1,%ymm1
  40121e:	c5 fc 59 c3          	vmulps %ymm3,%ymm0,%ymm0
  401222:	c5 e4 59 db          	vmulps %ymm3,%ymm3,%ymm3
  401226:	c5 ec 5c d4          	vsubps %ymm4,%ymm2,%ymm2
  40122a:	c5 f4 5c ed          	vsubps %ymm5,%ymm1,%ymm5
  40122e:	c5 ec 59 d7          	vmulps %ymm7,%ymm2,%ymm2
  401232:	c5 c4 59 ff          	vmulps %ymm7,%ymm7,%ymm7
  401236:	c5 fc 58 c2          	vaddps %ymm2,%ymm0,%ymm0
  40123a:	c5 e4 58 df          	vaddps %ymm7,%ymm3,%ymm3
  40123e:	c5 d4 59 eb          	vmulps %ymm3,%ymm5,%ymm5
  401242:	c5 fc 58 ed          	vaddps %ymm5,%ymm0,%ymm5
  401246:	c4 c1 7c 29 6c 02 20 	vmovaps %ymm5,0x20(%r10,%rax,1)
  40124d:	48 83 c0 40          	add    $0x40,%rax
  401251:	48 3d 00 80 00 00    	cmp    $0x8000,%rax
  401257:	0f 85 73 fe ff ff    	jne    4010d0 <kernel+0x20>
  40125d:	c5 f8 77             	vzeroupper 
  401260:	48 8b 5d f8          	mov    -0x8(%rbp),%rbx
  401264:	c9                   	leaveq 
  401265:	c3                   	retq   
  401266:	66 2e 0f 1f 84 00 00 	nopw   %cs:0x0(%rax,%rax,1)
  40126d:	00 00 00 

0000000000401270 <kernel2>:
  401270:	c5 fc 28 37          	vmovaps (%rdi),%ymm6
  401274:	c5 fc 28 2a          	vmovaps (%rdx),%ymm5
  401278:	55                   	push   %rbp
  401279:	c5 fc 28 1e          	vmovaps (%rsi),%ymm3
  40127d:	c5 fc 28 62 20       	vmovaps 0x20(%rdx),%ymm4
  401282:	c4 41 7c 28 79 20    	vmovaps 0x20(%r9),%ymm15
  401288:	48 89 e5             	mov    %rsp,%rbp
  40128b:	4c 8b 5d 10          	mov    0x10(%rbp),%r11
  40128f:	4c 8b 55 18          	mov    0x18(%rbp),%r10
  401293:	48 8b 45 20          	mov    0x20(%rbp),%rax
  401297:	c4 c1 54 5c 3b       	vsubps (%r11),%ymm5,%ymm7
  40129c:	c4 c1 4c 5c 0b       	vsubps (%r11),%ymm6,%ymm1
  4012a1:	c5 fc 28 31          	vmovaps (%rcx),%ymm6
  4012a5:	c4 41 4c 5c 02       	vsubps (%r10),%ymm6,%ymm8
  4012aa:	c4 41 64 5c 1a       	vsubps (%r10),%ymm3,%ymm11
  4012af:	c4 c1 7c 28 29       	vmovaps (%r9),%ymm5
  4012b4:	c5 c4 59 d7          	vmulps %ymm7,%ymm7,%ymm2
  4012b8:	c4 41 54 5c 22       	vsubps (%r10),%ymm5,%ymm12
  4012bd:	c4 c1 7c 28 18       	vmovaps (%r8),%ymm3
  4012c2:	c4 c1 3c 59 c0       	vmulps %ymm8,%ymm8,%ymm0
  4012c7:	c4 41 64 5c 0b       	vsubps (%r11),%ymm3,%ymm9
  4012cc:	c5 fc 28 77 20       	vmovaps 0x20(%rdi),%ymm6
  4012d1:	c5 fc 28 5e 20       	vmovaps 0x20(%rsi),%ymm3
  4012d6:	c5 fc 28 69 20       	vmovaps 0x20(%rcx),%ymm5
  4012db:	c4 41 04 5c 52 20    	vsubps 0x20(%r10),%ymm15,%ymm10
  4012e1:	c4 41 34 59 e9       	vmulps %ymm9,%ymm9,%ymm13
  4012e6:	c5 ec 58 d0          	vaddps %ymm0,%ymm2,%ymm2
  4012ea:	c4 c1 1c 59 c4       	vmulps %ymm12,%ymm12,%ymm0
  4012ef:	c5 1c 59 e2          	vmulps %ymm2,%ymm12,%ymm12
  4012f3:	c5 b4 59 d2          	vmulps %ymm2,%ymm9,%ymm2
  4012f7:	c5 14 58 e8          	vaddps %ymm0,%ymm13,%ymm13
  4012fb:	c4 c1 4c 5c 43 20    	vsubps 0x20(%r11),%ymm6,%ymm0
  401301:	c4 c1 64 5c 72 20    	vsubps 0x20(%r10),%ymm3,%ymm6
  401307:	c4 c1 5c 5c 5b 20    	vsubps 0x20(%r11),%ymm4,%ymm3
  40130d:	c4 c1 54 5c 62 20    	vsubps 0x20(%r10),%ymm5,%ymm4
  401313:	c4 c1 7c 28 68 20    	vmovaps 0x20(%r8),%ymm5
  401319:	c4 41 3c 59 f5       	vmulps %ymm13,%ymm8,%ymm14
  40131e:	c4 c1 54 5c 6b 20    	vsubps 0x20(%r11),%ymm5,%ymm5
  401324:	c4 41 44 59 ed       	vmulps %ymm13,%ymm7,%ymm13
  401329:	c4 41 3c 59 c1       	vmulps %ymm9,%ymm8,%ymm8
  40132e:	c4 c1 44 59 f9       	vmulps %ymm9,%ymm7,%ymm7
  401333:	c4 41 0c 5c e4       	vsubps %ymm12,%ymm14,%ymm12
  401338:	c4 c1 6c 5c d5       	vsubps %ymm13,%ymm2,%ymm2
  40133d:	c5 54 59 ed          	vmulps %ymm5,%ymm5,%ymm13
  401341:	c5 1c 59 e1          	vmulps %ymm1,%ymm12,%ymm12
  401345:	c4 c1 44 5c f8       	vsubps %ymm8,%ymm7,%ymm7
  40134a:	c4 c1 6c 59 d3       	vmulps %ymm11,%ymm2,%ymm2
  40134f:	c5 f4 59 c9          	vmulps %ymm1,%ymm1,%ymm1
  401353:	c4 41 24 59 db       	vmulps %ymm11,%ymm11,%ymm11
  401358:	c5 9c 58 d2          	vaddps %ymm2,%ymm12,%ymm2
  40135c:	c4 c1 74 58 cb       	vaddps %ymm11,%ymm1,%ymm1
  401361:	c5 f4 59 cf          	vmulps %ymm7,%ymm1,%ymm1
  401365:	c5 ec 58 d1          	vaddps %ymm1,%ymm2,%ymm2
  401369:	c5 dc 59 cc          	vmulps %ymm4,%ymm4,%ymm1
  40136d:	c5 fc 29 10          	vmovaps %ymm2,(%rax)
  401371:	c5 e4 59 d3          	vmulps %ymm3,%ymm3,%ymm2
  401375:	c5 fc 28 7f 40       	vmovaps 0x40(%rdi),%ymm7
  40137a:	c5 ec 58 d1          	vaddps %ymm1,%ymm2,%ymm2
  40137e:	c4 c1 2c 59 ca       	vmulps %ymm10,%ymm10,%ymm1
  401383:	c5 2c 59 d2          	vmulps %ymm2,%ymm10,%ymm10
  401387:	c5 d4 59 d2          	vmulps %ymm2,%ymm5,%ymm2
  40138b:	c5 14 58 e9          	vaddps %ymm1,%ymm13,%ymm13
  40138f:	c4 c1 44 5c 4b 40    	vsubps 0x40(%r11),%ymm7,%ymm1
  401395:	c5 fc 28 7e 40       	vmovaps 0x40(%rsi),%ymm7
  40139a:	c4 c1 44 5c 7a 40    	vsubps 0x40(%r10),%ymm7,%ymm7
  4013a0:	c5 7c 28 7a 40       	vmovaps 0x40(%rdx),%ymm15
  4013a5:	c4 41 04 5c 43 40    	vsubps 0x40(%r11),%ymm15,%ymm8
  4013ab:	c5 7c 28 79 40       	vmovaps 0x40(%rcx),%ymm15
  4013b0:	c4 41 5c 59 f5       	vmulps %ymm13,%ymm4,%ymm14
  4013b5:	c4 41 04 5c 4a 40    	vsubps 0x40(%r10),%ymm15,%ymm9
  4013bb:	c4 41 7c 28 78 40    	vmovaps 0x40(%r8),%ymm15
  4013c1:	c4 41 64 59 ed       	vmulps %ymm13,%ymm3,%ymm13
  4013c6:	c4 41 04 5c 5b 40    	vsubps 0x40(%r11),%ymm15,%ymm11
  4013cc:	c4 41 7c 28 79 40    	vmovaps 0x40(%r9),%ymm15
  4013d2:	c5 e4 59 dd          	vmulps %ymm5,%ymm3,%ymm3
  4013d6:	c4 41 04 5c 62 40    	vsubps 0x40(%r10),%ymm15,%ymm12
  4013dc:	c5 dc 59 e5          	vmulps %ymm5,%ymm4,%ymm4
  4013e0:	c4 41 0c 5c d2       	vsubps %ymm10,%ymm14,%ymm10
  4013e5:	c4 c1 6c 5c d5       	vsubps %ymm13,%ymm2,%ymm2
  4013ea:	c4 41 24 59 eb       	vmulps %ymm11,%ymm11,%ymm13
  4013ef:	c5 2c 59 d0          	vmulps %ymm0,%ymm10,%ymm10
  4013f3:	c5 e4 5c e4          	vsubps %ymm4,%ymm3,%ymm4
  4013f7:	c5 ec 59 d6          	vmulps %ymm6,%ymm2,%ymm2
  4013fb:	c5 fc 59 c0          	vmulps %ymm0,%ymm0,%ymm0
  4013ff:	c5 cc 59 f6          	vmulps %ymm6,%ymm6,%ymm6
  401403:	c5 ac 58 d2          	vaddps %ymm2,%ymm10,%ymm2
  401407:	c5 fc 58 c6          	vaddps %ymm6,%ymm0,%ymm0
  40140b:	c5 fc 59 c4          	vmulps %ymm4,%ymm0,%ymm0
  40140f:	c5 ec 58 c0          	vaddps %ymm0,%ymm2,%ymm0
  401413:	c4 c1 3c 59 d0       	vmulps %ymm8,%ymm8,%ymm2
  401418:	c5 fc 29 40 20       	vmovaps %ymm0,0x20(%rax)
  40141d:	c4 c1 34 59 c1       	vmulps %ymm9,%ymm9,%ymm0
  401422:	c4 c1 7c 28 6b 60    	vmovaps 0x60(%r11),%ymm5
  401428:	c4 41 7c 28 70 60    	vmovaps 0x60(%r8),%ymm14
  40142e:	c5 fc 28 5a 60       	vmovaps 0x60(%rdx),%ymm3
  401433:	c4 41 7c 28 52 60    	vmovaps 0x60(%r10),%ymm10
  401439:	c5 fc 28 76 60       	vmovaps 0x60(%rsi),%ymm6
  40143e:	c5 fc 28 61 60       	vmovaps 0x60(%rcx),%ymm4
  401443:	c5 e4 5c dd          	vsubps %ymm5,%ymm3,%ymm3
  401447:	c4 c1 5c 5c e2       	vsubps %ymm10,%ymm4,%ymm4
  40144c:	c4 c1 4c 5c f2       	vsubps %ymm10,%ymm6,%ymm6
  401451:	c5 ec 58 d0          	vaddps %ymm0,%ymm2,%ymm2
  401455:	c4 c1 1c 59 c4       	vmulps %ymm12,%ymm12,%ymm0
  40145a:	c5 1c 59 e2          	vmulps %ymm2,%ymm12,%ymm12
  40145e:	c5 a4 59 d2          	vmulps %ymm2,%ymm11,%ymm2
  401462:	c5 14 58 e8          	vaddps %ymm0,%ymm13,%ymm13
  401466:	c5 fc 28 47 60       	vmovaps 0x60(%rdi),%ymm0
  40146b:	c5 fc 5c c5          	vsubps %ymm5,%ymm0,%ymm0
  40146f:	c5 8c 5c ed          	vsubps %ymm5,%ymm14,%ymm5
  401473:	c4 41 7c 28 71 60    	vmovaps 0x60(%r9),%ymm14
  401479:	c4 41 0c 5c d2       	vsubps %ymm10,%ymm14,%ymm10
  40147e:	c4 41 34 59 f5       	vmulps %ymm13,%ymm9,%ymm14
  401483:	c4 41 3c 59 ed       	vmulps %ymm13,%ymm8,%ymm13
  401488:	c4 41 34 59 cb       	vmulps %ymm11,%ymm9,%ymm9
  40148d:	c4 41 0c 5c e4       	vsubps %ymm12,%ymm14,%ymm12
  401492:	c4 c1 6c 5c d5       	vsubps %ymm13,%ymm2,%ymm2
  401497:	c5 1c 59 e1          	vmulps %ymm1,%ymm12,%ymm12
  40149b:	c5 ec 59 d7          	vmulps %ymm7,%ymm2,%ymm2
  40149f:	c5 f4 59 c9          	vmulps %ymm1,%ymm1,%ymm1
  4014a3:	c5 c4 59 ff          	vmulps %ymm7,%ymm7,%ymm7
  4014a7:	c5 9c 58 d2          	vaddps %ymm2,%ymm12,%ymm2
  4014ab:	c5 f4 58 cf          	vaddps %ymm7,%ymm1,%ymm1
  4014af:	c4 c1 3c 59 fb       	vmulps %ymm11,%ymm8,%ymm7
  4014b4:	c4 c1 44 5c f9       	vsubps %ymm9,%ymm7,%ymm7
  4014b9:	c5 f4 59 ff          	vmulps %ymm7,%ymm1,%ymm7
  4014bd:	c5 e4 59 cb          	vmulps %ymm3,%ymm3,%ymm1
  4014c1:	c5 ec 58 ff          	vaddps %ymm7,%ymm2,%ymm7
  4014c5:	c5 dc 59 d4          	vmulps %ymm4,%ymm4,%ymm2
  4014c9:	c5 fc 29 78 40       	vmovaps %ymm7,0x40(%rax)
  4014ce:	c5 d4 59 fd          	vmulps %ymm5,%ymm5,%ymm7
  4014d2:	c5 f4 58 ca          	vaddps %ymm2,%ymm1,%ymm1
  4014d6:	c4 c1 2c 59 d2       	vmulps %ymm10,%ymm10,%ymm2
  4014db:	c5 2c 59 d1          	vmulps %ymm1,%ymm10,%ymm10
  4014df:	c5 d4 59 c9          	vmulps %ymm1,%ymm5,%ymm1
  4014e3:	c5 c4 58 fa          	vaddps %ymm2,%ymm7,%ymm7
  4014e7:	c5 dc 59 d7          	vmulps %ymm7,%ymm4,%ymm2
  4014eb:	c5 e4 59 ff          	vmulps %ymm7,%ymm3,%ymm7
  4014ef:	c5 dc 59 e5          	vmulps %ymm5,%ymm4,%ymm4
  4014f3:	c5 e4 59 dd          	vmulps %ymm5,%ymm3,%ymm3
  4014f7:	c4 c1 6c 5c d2       	vsubps %ymm10,%ymm2,%ymm2
  4014fc:	c5 f4 5c cf          	vsubps %ymm7,%ymm1,%ymm1
  401500:	c5 ec 59 d0          	vmulps %ymm0,%ymm2,%ymm2
  401504:	c5 e4 5c e4          	vsubps %ymm4,%ymm3,%ymm4
  401508:	c5 f4 59 ce          	vmulps %ymm6,%ymm1,%ymm1
  40150c:	c5 fc 59 c0          	vmulps %ymm0,%ymm0,%ymm0
  401510:	c5 cc 59 f6          	vmulps %ymm6,%ymm6,%ymm6
  401514:	c5 ec 58 c9          	vaddps %ymm1,%ymm2,%ymm1
  401518:	c5 fc 58 c6          	vaddps %ymm6,%ymm0,%ymm0
  40151c:	c5 fc 59 c4          	vmulps %ymm4,%ymm0,%ymm0
  401520:	c5 f4 58 c8          	vaddps %ymm0,%ymm1,%ymm1
  401524:	c5 fc 29 48 60       	vmovaps %ymm1,0x60(%rax)
  401529:	c5 f8 77             	vzeroupper 
  40152c:	5d                   	pop    %rbp
  40152d:	c3                   	retq   
  40152e:	66 90                	xchg   %ax,%ax

0000000000401530 <__libc_csu_init>:
  401530:	f3 0f 1e fa          	endbr64 
  401534:	41 57                	push   %r15
  401536:	49 89 d7             	mov    %rdx,%r15
  401539:	41 56                	push   %r14
  40153b:	49 89 f6             	mov    %rsi,%r14
  40153e:	41 55                	push   %r13
  401540:	41 89 fd             	mov    %edi,%r13d
  401543:	41 54                	push   %r12
  401545:	4c 8d 25 b4 08 20 00 	lea    0x2008b4(%rip),%r12        # 601e00 <__frame_dummy_init_array_entry>
  40154c:	55                   	push   %rbp
  40154d:	48 8d 2d b4 08 20 00 	lea    0x2008b4(%rip),%rbp        # 601e08 <__init_array_end>
  401554:	53                   	push   %rbx
  401555:	4c 29 e5             	sub    %r12,%rbp
  401558:	48 83 ec 08          	sub    $0x8,%rsp
  40155c:	e8 1f f0 ff ff       	callq  400580 <_init>
  401561:	48 c1 fd 03          	sar    $0x3,%rbp
  401565:	74 1f                	je     401586 <__libc_csu_init+0x56>
  401567:	31 db                	xor    %ebx,%ebx
  401569:	0f 1f 80 00 00 00 00 	nopl   0x0(%rax)
  401570:	4c 89 fa             	mov    %r15,%rdx
  401573:	4c 89 f6             	mov    %r14,%rsi
  401576:	44 89 ef             	mov    %r13d,%edi
  401579:	41 ff 14 dc          	callq  *(%r12,%rbx,8)
  40157d:	48 83 c3 01          	add    $0x1,%rbx
  401581:	48 39 dd             	cmp    %rbx,%rbp
  401584:	75 ea                	jne    401570 <__libc_csu_init+0x40>
  401586:	48 83 c4 08          	add    $0x8,%rsp
  40158a:	5b                   	pop    %rbx
  40158b:	5d                   	pop    %rbp
  40158c:	41 5c                	pop    %r12
  40158e:	41 5d                	pop    %r13
  401590:	41 5e                	pop    %r14
  401592:	41 5f                	pop    %r15
  401594:	c3                   	retq   

0000000000401595 <.annobin___libc_csu_fini.start>:
  401595:	66 66 2e 0f 1f 84 00 	data16 nopw %cs:0x0(%rax,%rax,1)
  40159c:	00 00 00 00 

00000000004015a0 <__libc_csu_fini>:
  4015a0:	f3 0f 1e fa          	endbr64 
  4015a4:	c3                   	retq   

Disassembly of section .fini:

00000000004015a8 <_fini>:
  4015a8:	f3 0f 1e fa          	endbr64 
  4015ac:	48 83 ec 08          	sub    $0x8,%rsp
  4015b0:	48 83 c4 08          	add    $0x8,%rsp
  4015b4:	c3                   	retq   
